(dp0
I0
F0.26812855396990837
sI1
F0.28591663019853425
sI3
F0.2089551253602913
sI5
F0.5157311647288562
sI7
F0.5518788974772627
sI9
F0.202094812937269
sI11
F0.5191514950840735
sI14
F0.497611
sI15
F0.5145000727919935
sI16
F0.5
sI19
F0.5655953362179595
sI21
F0.5214102840329098
sI22
F0.46867543763932373
sI27
F0.23635524965202834
sI29
F0.5088957973920537
sI32
F0.4995926553906044
sI33
F0.5573892896386359
sI34
F0.6166882222001173
sI38
F0.4991913443111551
sI42
F0.4648914995676649
sI44
F0.5
sI45
F0.6168635898525959
sI46
F0.6716878032934421
sI48
F0.5
sI50
F0.5001912312240955
sI52
F0.67195
sI55
F0.5169478547475441
sI57
F0.5326111703499159
sI58
F0.5
sI63
F0.5988925091799866
sI64
F0.505
sI66
F0.50265
sI68
F0.488305
sI70
F0.5
sI76
F0.5
sI81
F0.24030066006593093
sI83
F0.49221370536319586
sI86
F0.48748675735877606
sI87
F0.7693385624377492
sI88
F0.5
sI92
F0.49079693708101585
sI96
F0.5
sI98
F0.5
sI99
F0.513382860903556
sI100
F0.4997193924494822
sI102
F0.5030069442987833
sI104
F0.67195
sI106
F0.5
sI110
F0.4906170350752624
sI114
F0.505
sI116
F0.6355000000000001
sI125
F0.5
sI126
F0.49983706692914576
sI128
F0.6355000000000001
sI131
F0.5
sI132
F0.55
sI133
F0.5
sI135
F0.7795360136173504
sI136
F0.5258584647125646
sI138
F0.5519696037884917
sI140
F0.704755
sI142
F0.5
sI144
F0.8070666834190398
sI146
F0.82566077995
sI149
F0.45
sI150
F0.82566077995
sI151
F0.5
sI154
F0.55
sI156
F0.5950000000000001
sI157
F0.505
sI163
F0.3005460432380551
sI165
F0.22625297746703077
sI166
F0.16453372777319353
sI171
F0.21011198698269057
sI172
F0.15578805713600236
sI174
F0.29810293113697217
sI176
F0.16327762068899507
sI178
F0.14284725181927282
sI184
F0.16025876523777774
sI189
F0.21198063685944507
sI190
F0.30377173030803917
sI192
F0.17279762487609784
sI194
F0.16807062508552786
sI196
F0.9249526823515004
sI198
F0.15311578631690537
sI200
F0.49325467711155097
sI203
F0.05033273500049567
sI204
F0.1431162236175739
sI205
F0.114383962274805
sI208
F0.9392116727047154
sI210
F0.5
sI211
F0.12709329141645
sI220
F0.704755
sI226
F0.885616037725195
sI228
F0.7608515499999999
sI229
F1.0
sI243
F0.21858726184647637
sI245
F0.5117613645742469
sI248
F0.499375
sI249
F0.688110732423867
sI250
F0.4994955
sI254
F0.5
sI258
F0.5
sI260
F0.5
sI261
F0.5234535060657926
sI262
F0.5
sI264
F0.49918633170990007
sI266
F0.5
sI268
F0.5
sI272
F0.49901079259184833
sI276
F0.46057052363160456
sI278
F0.5950000000000001
sI287
F0.5
sI288
F0.5041
sI290
F0.5950000000000001
sI293
F0.5
sI294
F0.5
sI295
F0.5
sI297
F0.5078469347803533
sI298
F0.5
sI300
F0.500317380473412
sI302
F0.5
sI304
F0.5
sI306
F0.5087713882585858
sI308
F0.55
sI311
F0.45
sI312
F0.55
sI313
F0.5
sI316
F0.5
sI318
F0.5030658941490224
sI319
F0.5
sI326
F0.4910825933230333
sI330
F0.8128968260574737
sI332
F0.82566077995
sI341
F0.5
sI342
F0.5041309876859283
sI344
F0.6355000000000001
sI347
F0.5
sI348
F0.82566077995
sI349
F0.5
sI359
F1.0
sI371
F1.0
sI375
F1.0
sI378
F0.49898904616963896
sI380
F0.4858012594749572
sI383
F0.45
sI384
F0.8385216932795957
sI385
F0.49061083152088486
sI389
F0.45
sI393
F0.8862246832783727
sI395
F0.9166140915016672
sI396
F0.47831258131844473
sI397
F0.46336339503070784
sI399
F0.46731526717546473
sI401
F0.5950000000000001
sI403
F0.67195
sI405
F0.1906758790805349
sI406
F0.15951781770978732
sI408
F0.1498486674639536
sI410
F0.5023057462143742
sI412
F0.4964352454724046
sI414
F0.15181793781852548
sI416
F0.7342795
sI419
F0.09859781720245245
sI420
F0.5
sI421
F0.11178044794620795
sI424
F0.4959095725787418
sI426
F0.49492215
sI427
F0.12837545782741702
sI432
F0.14789347163200045
sI434
F0.4527638766715115
sI437
F0.1269661981250335
sI438
F0.09220447616942745
sI439
F0.07504731764849956
sI443
F0.405
sI447
F0.07211233956049033
sI449
F0.5
sI450
F0.496
sI451
F0.45
sI453
F0.45
sI455
F0.5
sI457
F0.5
sI460
F0.5010611357212406
sI462
F0.5018499999999999
sI463
F0.4939080087510316
sI468
F0.704755
sI469
F0.5
sI471
F0.514
sI473
F0.6355000000000001
sI475
F0.5
sI481
F0.4390800875103159
sI487
F0.5170666510823659
sI489
F0.5931314881880266
sI490
F0.5
sI495
F0.5231950912584766
sI496
F0.5
sI498
F0.531654379798661
sI500
F0.5127050520766812
sI502
F0.5
sI508
F0.5
sI513
F0.5164362251785128
sI514
F0.5230090511280653
sI516
F0.49998600000000004
sI518
F0.4999529166487054
sI520
F0.704755
sI522
F0.5
sI524
F0.5
sI527
F0.49905
sI528
F0.5
sI529
F0.5
sI532
F0.704755
sI534
F0.499905
sI535
F0.5
sI544
F0.5
sI550
F0.55
sI552
F0.55
sI553
F1.0
sI567
F0.7360987586812658
sI568
F0.505
sI570
F0.7764790642405855
sI572
F0.7608515499999999
sI574
F0.55
sI576
F0.5
sI578
F0.5
sI581
F0.5495509000000001
sI582
F0.5
sI583
F0.5
sI586
F0.5
sI588
F0.7847663949999999
sI589
F0.5
sI594
F0.500221
sI596
F0.4806627505816977
sI599
F0.46609728506725745
sI600
F0.5
sI601
F0.5
sI605
F0.4590776055289842
sI609
F0.5
sI611
F0.55
sI612
F0.49630816446859305
sI613
F0.45
sI615
F0.405
sI617
F0.5950000000000001
sI619
F0.5
sI622
F0.55
sI624
F0.8062897554999999
sI625
F0.5
sI630
F0.8062897554999999
sI631
F0.5
sI633
F0.5
sI635
F0.6355000000000001
sI637
F0.5
sI643
F0.55
sI652
F0.55
sI658
F0.7608515499999999
sI660
F0.8062897554999999
sI661
F1.0
sI676
F0.8970544339526756
sI678
F0.5014440928067373
sI679
F0.5
sI684
F0.5054415400000001
sI685
F0.521695
sI687
F0.4995
sI689
F0.4905
sI691
F0.55
sI697
F0.5
sI729
F0.2219354267577273
sI731
F0.5068905550316679
sI734
F0.4987008045
sI735
F0.51109106329963
sI736
F0.5
sI740
F0.5204755000000001
sI744
F0.505
sI746
F0.55
sI747
F0.5150664739831122
sI748
F0.5
sI750
F0.4995
sI752
F0.5
sI754
F0.5
sI758
F0.4986
sI762
F0.5
sI764
F0.5
sI773
F0.5
sI774
F0.5
sI776
F0.5
sI779
F0.5
sI780
F0.5
sI781
F1.0
sI783
F0.5102555417560384
sI784
F0.5
sI786
F0.4639820351182239
sI788
F0.5005
sI790
F0.5
sI792
F0.505
sI794
F0.55
sI797
F0.505
sI798
F0.55
sI799
F0.5
sI802
F0.5
sI804
F0.5
sI805
F0.5
sI812
F0.49069061290754734
sI816
F0.5031450000000001
sI818
F0.5
sI827
F1.0
sI828
F0.4941152338442546
sI830
F0.4664881129153375
sI833
F0.44299678406951765
sI834
F0.4905
sI835
F0.5
sI845
F0.5
sI857
F0.405
sI861
F0.45
sI863
F0.0
sI864
F0.5
sI866
F0.55
sI869
F0.5
sI870
F0.55
sI871
F0.5
sI875
F1.0
sI879
F1.0
sI882
F0.5
sI883
F0.5
sI885
F0.5
sI887
F0.55
sI889
F0.5
sI891
F0.21902766161429338
sI892
F0.1629198414527255
sI894
F0.1506107153090764
sI896
F0.495189682889949
sI898
F0.5950000000000001
sI900
F0.1599149080705787
sI902
F0.524392693012
sI905
F0.09471825935438839
sI906
F0.49509919656347795
sI907
F0.07939876179790761
sI910
F0.5950000000000001
sI912
F0.50247864
sI913
F0.1714619468850311
sI918
F0.1546669790375529
sI920
F0.128954016167153
sI923
F0.07504731764849956
sI924
F0.6355000000000001
sI925
F1.0
sI929
F0.1114478626918545
sI933
F0.09315538487864959
sI935
F0.5
sI936
F0.5950000000000001
sI937
F1.0
sI939
F0.5
sI941
F0.5
sI946
F0.1510936637376567
sI948
F0.13243506800672966
sI949
F0.09265100944259205
sI954
F0.4951145196074836
sI955
F0.12709329141645
sI957
F0.10362808588364962
sI959
F0.495
sI961
F0.5
sI967
F0.11000068460140386
sI974
F0.5
sI978
F0.5
sI980
F0.5
sI989
F0.5
sI990
F0.49915
sI992
F0.5
sI995
F0.5
sI996
F0.496
sI997
F0.505
sI1007
F0.5
sI1019
F0.5
sI1023
F0.5
sI1025
F0.0
sI1026
F0.5
sI1028
F0.5
sI1031
F0.5
sI1032
F0.5
sI1033
F0.5
sI1037
F0.5
sI1041
F0.5
sI1043
F0.5
sI1044
F0.5
sI1045
F0.5
sI1047
F0.5
sI1049
F0.5
sI1051
F0.5
sI1061
F0.5
sI1073
F0.405
sI1077
F0.5
sI1079
F0.0
sI1109
F0.47952058907052597
sI1113
F0.48569595749959427
sI1115
F0.55
sI1124
F1.0
sI1125
F0.4711902676056202
sI1127
F0.43475709219708114
sI1130
F0.35261349913661066
sI1131
F0.4042683650049011
sI1132
F0.3399354895383807
sI1134
F0.1732042365355328
sI1136
F0.5337253140152499
sI1139
F0.45
sI1140
F0.1550625986626557
sI1141
F0.04841948452195011
sI1145
F0.5
sI1149
F0.07097993833396979
sI1151
F0.55
sI1152
F0.4868103090487749
sI1153
F0.4708149959740524
sI1155
F0.46849181354999997
sI1157
F0.5
sI1159
F0.6355000000000001
sI1163
F0.114383962274805
sI1167
F0.04249702048481849
sI1169
F0.5
sI1178
F0.45
sI1179
F0.4720097385959559
sI1181
F0.40905579441970585
sI1184
F0.2982995448485293
sI1185
F0.55
sI1186
F1.0
sI1188
F0.5421967472487452
sI1189
F0.140381685121401
sI1191
F0.1402900532031691
sI1193
F0.517352604432252
sI1195
F0.13476595662893365
sI1197
F0.48428645132658427
sI1199
F0.5
sI1202
F0.45855000000000007
sI1203
F0.5
sI1204
F0.10108855191012338
sI1207
F0.3890865086750248
sI1209
F0.4955381281837715
sI1210
F0.10245771490320814
sI1215
F0.5024639284828507
sI1216
F0.5
sI1218
F0.49905
sI1220
F0.5005
sI1222
F0.5
sI1224
F0.5
sI1226
F0.55
sI1229
F0.49830795000000006
sI1230
F0.5
sI1231
F0.5
sI1234
F0.5
sI1236
F0.4905
sI1237
F0.45
sI1242
F0.5
sI1244
F0.5
sI1247
F0.5
sI1248
F0.5
sI1249
F1.0
sI1253
F0.5
sI1257
F0.5
sI1259
F0.5
sI1260
F0.5
sI1261
F1.0
sI1263
F0.45
sI1265
F0.5
sI1270
F0.5
sI1272
F0.5
sI1273
F0.5
sI1278
F0.55
sI1279
F0.5
sI1281
F0.45
sI1283
F0.55
sI1285
F0.5
sI1291
F0.5
sI1296
F0.50158
sI1298
F0.55
sI1301
F0.505
sI1302
F0.5
sI1303
F0.5
sI1307
F1.0
sI1311
F1.0
sI1314
F0.49195
sI1315
F0.45
sI1317
F0.45
sI1319
F0.55
sI1321
F0.5
sI1325
F0.47279392685999994
sI1329
F0.5
sI1331
F0.5
sI1340
F1.0
sI1341
F0.45
sI1343
F0.42638433250499996
sI1346
F0.36450000000000005
sI1347
F0.5
sI1348
F1.0
sI1350
F0.5
sI1351
F0.5
sI1353
F0.5
sI1355
F0.5
sI1357
F0.5
sI1359
F1.0
sI1364
F1.0
sI1366
F1.0
sI1369
F0.5
sI1371
F0.5
sI1372
F0.5
sI1378
F0.5950000000000001
sI1380
F0.5014469095545131
sI1381
F0.405
sI1386
F0.13123579052107814
sI1387
F0.10427657264849957
sI1389
F0.08338590849833284
sI1391
F0.45927
sI1393
F0.55
sI1399
F0.55
sI1404
F0.7342795
sI1405
F1.0
sI1407
F0.48982285570401124
sI1409
F0.4341739043483849
sI1413
F0.15487605534305354
sI1415
F0.1001882576380661
sI1418
F0.08571568430611991
sI1419
F0.704755
sI1420
F1.0
sI1425
F0.55
sI1426
F1.0
sI1435
F0.0
sI1441
F0.0
sI1443
F0.0
sI1459
F0.5698783792307692
sI1461
F0.5997169041755361
sI1462
F0.6461629213261599
sI1467
F0.5510642487502211
sI1468
F0.5093307145
sI1470
F0.5
sI1472
F0.5
sI1474
F0.50616325
sI1480
F0.6670311312481204
sI1485
F0.499550361199691
sI1486
F0.49738948130830407
sI1488
F0.49860767456550004
sI1490
F0.5005
sI1492
F0.6510352255241906
sI1494
F0.4999941621
sI1496
F0.5
sI1499
F0.5
sI1500
F0.5
sI1501
F0.49530910460843425
sI1504
F0.6951140618897719
sI1506
F0.49681
sI1507
F0.405
sI1516
F0.67195
sI1522
F0.55
sI1524
F0.5
sI1525
F1.0
sI1539
F0.2361632160491034
sI1540
F0.1463398015533189
sI1542
F0.19724333151605283
sI1544
F0.9392116727047154
sI1546
F0.6355000000000001
sI1548
F0.18517497656673393
sI1550
F0.4728674832774624
sI1553
F0.45
sI1554
F0.5028718533155111
sI1555
F0.49735052559
sI1558
F0.704755
sI1560
F0.7608515499999999
sI1561
F0.7310124940949123
sI1566
F0.16253451690956106
sI1568
F0.9166140915016672
sI1571
F0.505
sI1572
F0.9166140915016672
sI1573
F0.7414257659838827
sI1577
F0.4449377708461692
sI1581
F0.5
sI1583
F0.55
sI1584
F0.843094701955
sI1585
F0.7659909372801833
sI1587
F0.505
sI1589
F0.5
sI1591
F0.82566077995
sI1594
F0.7342795
sI1596
F0.8062897554999999
sI1597
F0.5
sI1602
F0.822467874635282
sI1603
F0.8665719520444717
sI1605
F0.45
sI1607
F0.0
sI1609
F0.9249526823515004
sI1615
F0.7847663949999999
sI1624
F0.704755
sI1630
F0.67195
sI1632
F0.704755
sI1633
F1.0
sI1648
F0.1780192125825607
sI1650
F0.4954365
sI1651
F0.041710452488629784
sI1656
F0.5039162993769799
sI1657
F0.18968589173029798
sI1659
F0.496125
sI1661
F0.47385
sI1663
F0.10000014200997537
sI1669
F0.0
sI1701
F0.5143043323738457
sI1702
F0.49861307086733936
sI1704
F0.5
sI1706
F0.5
sI1708
F0.49964523185932613
sI1710
F0.5100084712159274
sI1712
F0.5950000000000001
sI1715
F0.5
sI1716
F0.55
sI1717
F0.5
sI1720
F0.5
sI1722
F0.5
sI1723
F0.45
sI1728
F0.49876378284583034
sI1730
F0.55
sI1733
F0.5
sI1734
F0.55
sI1735
F0.48535053924600013
sI1739
F0.5
sI1743
F0.5
sI1745
F0.5
sI1746
F0.5
sI1747
F0.5
sI1749
F0.5
sI1751
F0.5
sI1753
F0.55
sI1756
F0.5
sI1758
F0.5
sI1759
F0.5
sI1764
F0.55
sI1765
F0.5
sI1767
F0.5
sI1769
F0.0
sI1771
F0.5
sI1777
F0.5
sI1782
F0.18530021984144218
sI1784
F0.55
sI1787
F0.405
sI1788
F0.843094701955
sI1789
F0.5
sI1793
F0.45
sI1797
F0.5
sI1799
F0.5
sI1800
F0.704755
sI1801
F0.5
sI1803
F0.5
sI1805
F0.5
sI1807
F0.5
sI1811
F1.0
sI1815
F1.0
sI1826
F1.0
sI1827
F1.0
sI1832
F1.0
sI1834
F1.0
sI1836
F0.14921701500394452
sI1837
F0.1348466278254188
sI1839
F0.11923569879566451
sI1841
F0.0
sI1843
F0.704755
sI1845
F0.08931178738254736
sI1847
F0.0
sI1851
F0.9249526823515004
sI1852
F0.505
sI1855
F0.6355000000000001
sI1857
F0.67195
sI1858
F0.505
sI1864
F0.5213865576295
sI1866
F0.49735
sI1867
F0.45
sI1872
F0.67195
sI1873
F0.5719522276405
sI1875
F0.5095000000000001
sI1877
F0.55
sI1879
F0.6355000000000001
sI1885
F0.0
sI1890
F0.483769580183309
sI1891
F0.0443146905982625
sI1893
F0.41400000000000003
sI1895
F0.495
sI1897
F0.4206946005
sI1899
F0.44198064168156037
sI1901
F0.55
sI1904
F0.32805000000000006
sI1905
F0.55
sI1906
F0.04404950887945764
sI1909
F0.0
sI1911
F0.0
sI1921
F0.5
sI1927
F0.6355000000000001
sI1929
F0.55
sI1930
F1.0
sI1948
F0.67195
sI1954
F0.55
sI1956
F0.6355000000000001
sI1957
F1.0
sI1972
F0.4849680382529104
sI1974
F0.500455
sI1975
F0.4734931666789657
sI1980
F0.5
sI1981
F0.47199331116544013
sI1983
F0.5
sI1985
F0.5
sI1987
F0.41154192838957293
sI1993
F0.4117103246745001
sI2026
F0.704755
sI2028
F0.8970544339526756
sI2029
F0.5
sI2034
F0.5026149999999999
sI2035
F0.505
sI2037
F0.5135500000000001
sI2039
F0.6355000000000001
sI2041
F0.5
sI2047
F0.7847663949999999
sI2052
F0.1744696208788556
sI2053
F0.12881273655398226
sI2055
F0.12087046685933375
sI2057
F0.6355000000000001
sI2059
F0.843094701955
sI2061
F0.12503583224419032
sI2063
F0.3333174756490562
sI2066
F0.2593401847801369
sI2067
F0.45144939465538325
sI2068
F0.33303310847569656
sI2071
F0.82566077995
sI2073
F0.7342795
sI2074
F0.301806
sI2083
F0.5
sI2089
F0.87290670858355
sI2091
F0.55
sI2092
F1.0
sI2137
F0.5950000000000001
sI2143
F0.9507614548908194
sI2145
F0.5
sI2146
F1.0
sI2187
F0.2179414641109695
sI2189
F0.5043361592501474
sI2192
F0.49409568282660415
sI2193
F0.5130666159810718
sI2194
F0.5000710185279635
sI2198
F0.499996
sI2202
F0.5000696734894019
sI2204
F0.5
sI2205
F0.5070147591817378
sI2206
F0.499095
sI2208
F0.5
sI2210
F0.5950000000000001
sI2212
F0.5005
sI2216
F0.4989257671509675
sI2220
F0.49905
sI2222
F0.5
sI2231
F0.5
sI2232
F0.4995
sI2234
F0.5
sI2237
F0.5
sI2238
F0.4905
sI2239
F0.5
sI2241
F0.5146213784474373
sI2242
F0.5
sI2244
F0.499095
sI2246
F0.55
sI2248
F0.5
sI2250
F0.4995
sI2252
F0.5
sI2255
F0.45
sI2256
F0.5
sI2257
F0.5
sI2260
F0.5
sI2262
F0.5
sI2263
F0.5
sI2270
F0.4894523840284993
sI2274
F0.4649621587984681
sI2276
F0.45303693241065673
sI2285
F0.43308398683502464
sI2286
F0.4971790450079566
sI2288
F0.5950000000000001
sI2291
F1.0
sI2292
F0.46053104289052493
sI2293
F0.4497489883805685
sI2303
F0.40432316265757184
sI2315
F0.5
sI2319
F0.405
sI2321
F0.0
sI2322
F0.50005
sI2324
F0.55
sI2327
F1.0
sI2328
F0.5005
sI2329
F0.5
sI2333
F0.45
sI2337
F0.5
sI2339
F0.5
sI2340
F0.5950000000000001
sI2341
F0.5
sI2343
F1.0
sI2347
F0.55
sI2349
F0.187986191341859
sI2350
F0.15204544056465993
sI2352
F0.14798383438469373
sI2354
F0.11530879657201268
sI2356
F0.5087140353679902
sI2358
F0.15563073211953898
sI2360
F0.5124786806395001
sI2363
F0.0839113481298486
sI2364
F0.5051959979537809
sI2365
F0.14455491750906657
sI2368
F0.505738
sI2370
F0.5024295
sI2371
F0.12653116776889728
sI2376
F0.1556899092849849
sI2378
F0.489257671509675
sI2381
F0.08610633882338625
sI2382
F0.502016727115
sI2383
F0.497613915
sI2387
F0.405
sI2391
F0.13184467863261082
sI2393
F0.514321975
sI2394
F0.4969495
sI2395
F0.45
sI2397
F0.45
sI2399
F0.495
sI2401
F0.5
sI2404
F0.12788247507930506
sI2406
F0.4957605
sI2407
F0.10922097607376065
sI2412
F0.1390900012918258
sI2413
F0.07504731764849956
sI2415
F0.1160468704528008
sI2417
F0.46032704999999996
sI2419
F0.1464828109281757
sI2425
F0.495
sI2432
F0.5073302711778646
sI2436
F0.5
sI2438
F0.5
sI2447
F0.5
sI2448
F0.5
sI2450
F0.5
sI2453
F0.5
sI2454
F0.5
sI2455
F0.5
sI2465
F0.5
sI2477
F0.5
sI2481
F0.5
sI2483
F0.0
sI2484
F0.5
sI2486
F0.495
sI2489
F0.45
sI2490
F0.5
sI2491
F0.5
sI2495
F0.5
sI2499
F0.5
sI2501
F0.5
sI2502
F0.5
sI2503
F0.5
sI2505
F0.5
sI2507
F0.5
sI2509
F0.5
sI2519
F0.405
sI2531
F0.5
sI2535
F0.405
sI2537
F0.0
sI2567
F0.45
sI2571
F0.4669945961494004
sI2573
F0.5
sI2582
F0.5
sI2583
F0.4691866974828068
sI2585
F0.5950000000000001
sI2588
F1.0
sI2589
F0.3998835882989424
sI2590
F0.3190628285795631
sI2592
F0.20736238010135172
sI2594
F0.5560701273853068
sI2597
F0.08338590849833284
sI2598
F0.524460260878546
sI2599
F0.49529100240983526
sI2603
F0.45
sI2607
F0.49837162844403443
sI2609
F0.55
sI2610
F0.20895579524452337
sI2611
F0.06244690355322324
sI2613
F0.06882715655977864
sI2615
F0.495
sI2617
F0.5070849470195499
sI2621
F0.36450000000000005
sI2625
F0.07580277884094261
sI2627
F0.495
sI2636
F0.45
sI2637
F0.08338590849833284
sI2639
F0.5
sI2642
F0.45
sI2643
F0.039047206276061036
sI2644
F0.0272453645290606
sI2646
F0.5235949315449999
sI2647
F0.11844012142310709
sI2649
F0.494667
sI2651
F0.5
sI2653
F0.505333
sI2655
F0.12492104979134264
sI2657
F0.7342795
sI2660
F0.36450000000000005
sI2661
F0.7608515499999999
sI2662
F0.12294856798042993
sI2665
F0.10775090197710983
sI2667
F0.5
sI2668
F0.08283033236650245
sI2673
F0.504844760318377
sI2674
F0.5
sI2676
F0.4977381402
sI2678
F0.5950000000000001
sI2680
F0.5
sI2682
F0.49905
sI2684
F0.5
sI2687
F0.5
sI2688
F0.5
sI2689
F0.5
sI2692
F0.5
sI2694
F0.5
sI2695
F0.5
sI2700
F0.5
sI2702
F0.5
sI2705
F0.5
sI2706
F0.5
sI2707
F0.5
sI2711
F0.5
sI2715
F0.5
sI2717
F0.5
sI2718
F0.5
sI2719
F0.5
sI2721
F0.49905
sI2723
F0.5
sI2725
F0.5
sI2728
F0.5
sI2730
F0.5
sI2731
F0.5
sI2736
F0.495
sI2737
F0.5
sI2739
F0.5
sI2741
F0.5
sI2743
F0.5
sI2749
F0.5
sI2754
F0.50602988755
sI2756
F0.55
sI2759
F1.0
sI2760
F0.5137288930000001
sI2761
F0.5
sI2765
F0.5
sI2769
F0.5
sI2771
F0.5
sI2772
F0.55
sI2773
F0.5
sI2775
F1.0
sI2779
F0.55
sI2783
F0.4671122013560997
sI2787
F0.50005
sI2789
F0.41247681004293846
sI2798
F0.3136871745710335
sI2799
F0.5
sI2801
F0.5
sI2804
F1.0
sI2805
F0.5005
sI2806
F0.5
sI2808
F0.55
sI2809
F0.5
sI2811
F1.0
sI2815
F0.5
sI2817
F0.5
sI2819
F0.5
sI2822
F1.0
sI2823
F0.5
sI2824
F0.5
sI2827
F0.5
sI2830
F1.0
sI2836
F0.5044450928251962
sI2838
F0.48707197020000004
sI2839
F0.36450000000000005
sI2844
F0.4804643998472052
sI2845
F0.45
sI2847
F0.405
sI2849
F0.5
sI2851
F0.11173061781604106
sI2857
F0.495
sI2862
F0.5020245
sI2863
F0.4837534462596538
sI2865
F0.49733708400000004
sI2867
F0.49996
sI2869
F0.5950000000000001
sI2871
F0.4455684965101909
sI2873
F0.36624467303282915
sI2876
F0.23914845
sI2877
F0.5209057894140549
sI2878
F0.10302294009473789
sI2881
F0.55
sI2883
F0.48195
sI2884
F0.405
sI2893
F0.0
sI2899
F0.0
sI2901
F0.0
sI2918
F0.4995
sI2922
F0.5159961208544948
sI2924
F0.55
sI2933
F0.5
sI2934
F0.50455
sI2936
F0.55
sI2939
F0.5
sI2940
F0.55
sI2941
F0.5
sI2951
F0.5
sI2963
F0.5
sI2967
F0.45
sI2969
F0.0
sI2970
F0.5225045148831977
sI2972
F0.5950000000000001
sI2975
F0.5
sI2976
F0.5950000000000001
sI2977
F0.5
sI2981
F0.5
sI2985
F0.5
sI2987
F0.5
sI2988
F0.55
sI2989
F0.5
sI2991
F0.5
sI2993
F0.5
sI2995
F0.5
sI3005
F0.405
sI3017
F0.405
sI3021
F0.405
sI3023
F0.0
sI3053
F0.5
sI3057
F0.505
sI3059
F0.5
sI3068
F1.0
sI3069
F0.5
sI3071
F0.5
sI3074
F1.0
sI3075
F0.55
sI3076
F0.5
sI3078
F0.15535938651444833
sI3080
F0.5950000000000001
sI3083
F0.09613073268442465
sI3084
F0.7342795
sI3085
F0.5367205000000002
sI3089
F0.405
sI3093
F0.47160034006910867
sI3095
F0.5
sI3096
F0.7342795
sI3097
F0.5297950000000001
sI3099
F0.50559795
sI3101
F0.55
sI3103
F0.6355000000000001
sI3107
F0.10397502170779775
sI3111
F0.5135500000000001
sI3113
F0.55
sI3122
F0.405
sI3123
F0.5221
sI3125
F0.5950000000000001
sI3128
F0.45
sI3129
F0.5950000000000001
sI3130
F1.0
sI3132
F0.5950000000000001
sI3133
F0.11058682011430228
sI3135
F0.10818463394904707
sI3137
F0.6355000000000001
sI3139
F0.5950000000000001
sI3141
F0.09185187506911904
sI3143
F0.5
sI3146
F0.405
sI3147
F0.5950000000000001
sI3148
F0.0691945195458647
sI3151
F0.55
sI3153
F0.55
sI3154
F0.08111255868659834
sI3167
F0.5
sI3179
F0.5
sI3183
F0.5
sI3185
F0.0
sI3215
F0.5
sI3219
F0.5
sI3221
F0.5
sI3230
F0.5
sI3231
F0.5
sI3233
F0.5
sI3236
F0.5
sI3237
F0.5
sI3238
F0.5
sI3302
F0.5
sI3314
F0.32805000000000006
sI3318
F0.29524500000000004
sI3320
F0.0
sI3323
F0.405
sI3327
F0.14913533973523055
sI3329
F0.87290670858355
sI3338
F0.5
sI3339
F0.2088647733515985
sI3341
F0.8587852317595001
sI3344
F0.45
sI3345
F0.9828315808985374
sI3346
F0.5505544701955
sI3356
F0.45
sI3368
F0.29524500000000004
sI3372
F0.026167381651368022
sI3374
F0.0
sI3375
F0.5
sI3377
F0.5
sI3380
F0.405
sI3381
F0.8587852317595001
sI3382
F0.12985309070330384
sI3386
F0.5
sI3390
F0.49365914049554427
sI3392
F0.55
sI3393
F0.9166140915016672
sI3394
F0.1015727333792378
sI3396
F0.49035293031181015
sI3398
F0.55
sI3400
F0.843094701955
sI3402
F0.502429196122065
sI3404
F0.55
sI3407
F0.5
sI3408
F0.55
sI3409
F0.505
sI3413
F0.5
sI3417
F0.5
sI3419
F0.5
sI3420
F0.55
sI3421
F0.5
sI3423
F0.5
sI3425
F0.5
sI3427
F0.5
sI3431
F0.5
sI3435
F0.5
sI3437
F0.5
sI3446
F0.5
sI3447
F0.5
sI3449
F0.5
sI3452
F0.5
sI3453
F0.5
sI3454
F1.0
sI3456
F0.6355000000000001
sI3457
F0.5
sI3459
F0.5
sI3461
F0.5
sI3463
F0.5
sI3465
F0.5
sI3467
F0.5
sI3470
F0.5
sI3471
F0.5
sI3472
F0.5
sI3475
F0.5
sI3477
F0.5
sI3478
F0.5
sI3485
F0.5
sI3489
F0.5448411550000001
sI3491
F0.5950000000000001
sI3500
F1.0
sI3501
F0.5
sI3503
F0.5
sI3506
F1.0
sI3507
F0.5950000000000001
sI3508
F0.5
sI3518
F0.3313305
sI3530
F0.32805000000000006
sI3534
F0.5
sI3536
F0.0
sI3537
F0.505
sI3539
F0.55
sI3542
F1.0
sI3543
F0.5950000000000001
sI3544
F0.5
sI3548
F1.0
sI3552
F1.0
sI3555
F0.5
sI3556
F0.5
sI3558
F1.0
sI3562
F0.5
sI3564
F0.7342795
sI3565
F0.45
sI3567
F0.45
sI3569
F0.5
sI3571
F0.5950000000000001
sI3573
F0.0888507127786496
sI3575
F0.55
sI3578
F0.32805000000000006
sI3579
F0.55
sI3580
F0.09265100944259205
sI3583
F0.55
sI3585
F0.55
sI3586
F0.5
sI3591
F0.5180500000000001
sI3593
F0.55
sI3596
F0.32805000000000006
sI3597
F0.5950000000000001
sI3598
F1.0
sI3602
F0.054709494565756175
sI3606
F0.5736957445000002
sI3608
F0.704755
sI3609
F0.55
sI3610
F1.0
sI3612
F0.45
sI3614
F0.5
sI3619
F0.0
sI3621
F0.0
sI3627
F0.0
sI3632
F0.0
sI3634
F0.0
sI3640
F0.0
sI3645
F0.5032934238928891
sI3646
F0.498745
sI3648
F0.499045241994975
sI3650
F0.5
sI3652
F0.5005
sI3654
F0.4994964
sI3656
F0.494964
sI3659
F0.45
sI3660
F0.5
sI3661
F0.499868317
sI3664
F0.49195
sI3666
F0.55
sI3667
F0.45
sI3672
F0.4637139055766123
sI3674
F0.5
sI3677
F0.5
sI3678
F0.5
sI3679
F0.4892700348
sI3683
F0.4996
sI3687
F0.5
sI3689
F0.5
sI3690
F0.495
sI3691
F0.405
sI3693
F0.4545
sI3695
F0.5
sI3697
F0.5
sI3700
F0.5
sI3702
F0.5
sI3703
F0.5
sI3708
F0.5
sI3709
F0.5
sI3711
F0.5
sI3713
F0.0
sI3715
F0.5
sI3721
F0.5
sI3726
F0.1979515607998103
sI3728
F0.87290670858355
sI3731
F1.0
sI3732
F0.14507776983002518
sI3733
F0.13491044301373797
sI3737
F0.40905
sI3741
F0.13970346903919365
sI3743
F0.15413210472325478
sI3744
F0.7342795
sI3745
F0.505
sI3747
F1.0
sI3751
F0.7608515499999999
sI3755
F0.5180500000000001
sI3759
F0.13548298462230984
sI3761
F0.7847663949999999
sI3770
F0.1898802150816766
sI3771
F0.505
sI3773
F0.5950000000000001
sI3776
F1.0
sI3777
F0.7342795
sI3778
F0.5
sI3780
F0.7847663949999999
sI3781
F0.5
sI3783
F1.0
sI3787
F0.5950000000000001
sI3789
F0.36450000000000005
sI3791
F0.0
sI3795
F0.4916456444385555
sI3796
F0.4105565721334472
sI3799
F0.5
sI3802
F1.0
sI3808
F0.5048370395385668
sI3810
F0.49273008412005004
sI3811
F0.45
sI3816
F0.5106692468387478
sI3817
F0.5218982052737857
sI3819
F0.4953250935000001
sI3821
F0.43991505
sI3823
F0.4580926516483946
sI3829
F0.0
sI3834
F0.13789481151038174
sI3835
F0.049238545109180555
sI3837
F0.10294556604732451
sI3839
F0.4905
sI3841
F0.4335024015
sI3843
F0.12143537351005709
sI3845
F0.11198983621892113
sI3848
F0.09265100944259205
sI3849
F0.3286034452985919
sI3850
F0.10000002807595172
sI3853
F0.0
sI3855
F0.0
sI3865
F0.5
sI3871
F0.5950000000000001
sI3873
F0.6355000000000001
sI3874
F1.0
sI3888
F0.49921324799185
sI3890
F0.5
sI3893
F0.5
sI3894
F0.5005
sI3895
F0.4964523185932613
sI3899
F0.5
sI3903
F0.5
sI3905
F0.5
sI3906
F0.50095
sI3907
F0.45
sI3909
F0.5
sI3911
F0.5
sI3913
F0.5
sI3917
F0.49905
sI3921
F0.5
sI3923
F0.5
sI3932
F0.5
sI3933
F0.5
sI3935
F0.5
sI3938
F0.5
sI3939
F0.5
sI3940
F0.5
sI3942
F0.4954984799185
sI3943
F0.499984799185
sI3945
F0.5
sI3947
F0.0
sI3949
F0.5
sI3951
F0.5
sI3953
F0.0
sI3957
F0.5
sI3958
F0.5
sI3961
F0.5
sI3963
F0.5
sI3964
F0.5
sI3971
F0.5
sI3975
F0.1339039009190574
sI3977
F0.5950000000000001
sI3986
F0.08338590849833284
sI3987
F0.5095000000000001
sI3989
F0.55
sI3992
F1.0
sI3993
F0.704755
sI3994
F0.52342795
sI4004
F1.0
sI4016
F1.0
sI4020
F1.0
sI4023
F0.10294556604732451
sI4025
F0.0
sI4029
F0.11101247163145009
sI4030
F0.1041339599997096
sI4038
F0.09824314303131737
sI4040
F0.0
sI4041
F0.55
sI4042
F0.5
sI4044
F1.0
sI4048
F0.82566077995
sI4050
F0.5065949930554423
sI4051
F0.4558395148152252
sI4053
F0.44955
sI4055
F0.5
sI4057
F0.4645231859326129
sI4059
F0.5025740499073956
sI4061
F0.6355000000000001
sI4064
F0.29524500000000004
sI4065
F0.55
sI4066
F0.36991179227853305
sI4069
F0.0
sI4071
F0.0
sI4077
F0.08902757970430905
sI4079
F0.4905
sI4082
F0.405
sI4083
F0.46228746717846936
sI4084
F0.23914845
sI4088
F0.08924699284528466
sI4092
F0.21829729423509311
sI4094
F0.5950000000000001
sI4095
F0.0
sI4100
F0.0
sI4102
F0.0
sI4105
F0.508395148152252
sI4107
F0.474255
sI4108
F0.45
sI4113
F0.7342795
sI4114
F0.5853195548725194
sI4116
F0.405
sI4118
F0.0
sI4120
F0.885616037725195
sI4126
F0.0
sI4132
F0.5
sI4134
F0.5
sI4135
F0.5
sI4140
F0.5
sI4141
F0.5
sI4143
F0.5
sI4145
F0.5
sI4147
F0.5
sI4153
F0.5
sI4158
F0.5
sI4159
F0.46606667758237125
sI4161
F0.5
sI4163
F0.5
sI4165
F0.5
sI4167
F0.5
sI4169
F0.5
sI4172
F0.5
sI4173
F0.5
sI4174
F0.3282676080205576
sI4177
F0.5
sI4179
F0.5
sI4180
F0.32805000000000006
sI4189
F0.5
sI4195
F0.5
sI4197
F0.5
sI4198
F1.0
sI4212
F0.87290670858355
sI4213
F0.5
sI4215
F1.0
sI4219
F0.6355000000000001
sI4221
F0.5
sI4223
F0.55
sI4226
F1.0
sI4227
F0.4915229954950587
sI4228
F0.4220304290409559
sI4231
F0.55
sI4234
F1.0
sI4239
F0.1337405694829224
sI4241
F0.7608515499999999
sI4244
F1.0
sI4245
F0.11370691766288724
sI4246
F0.10283491537963511
sI4250
F0.2584538233741306
sI4254
F0.10083089419504404
sI4256
F0.10006678446583482
sI4257
F0.87290670858355
sI4258
F0.5
sI4260
F1.0
sI4264
F0.9392116727047154
sI4267
F0.5
sI4270
F1.0
sI4275
F0.5
sI4276
F0.505
sI4278
F1.0
sI4282
F0.5950000000000001
sI4297
F0.5
sI4303
F0.55
sI4305
F0.5
sI4306
F1.0
sI4321
F0.3736759328595931
sI4323
F0.5
sI4324
F0.2657205
sI4329
F0.4438519016057523
sI4330
F0.2601795865269471
sI4332
F0.365011262143445
sI4334
F0.22535717275839692
sI4336
F0.10000016474320665
sI4342
F0.0
sI4375
F0.517162260881733
sI4377
F0.5182780088800472
sI4378
F0.5198247778555769
sI4383
F0.5473820640958154
sI4384
F0.5
sI4386
F0.5
sI4388
F0.5
sI4390
F0.5
sI4396
F0.4968820740323483
sI4401
F0.5184641338416507
sI4402
F0.5032407075962377
sI4404
F0.4999988837407131
sI4406
F0.5004145
sI4408
F0.67195
sI4410
F0.5
sI4412
F0.504802
sI4415
F0.4995
sI4416
F0.5
sI4417
F0.5
sI4420
F0.67195
sI4422
F0.5
sI4423
F0.49564167704999995
sI4432
F0.5950000000000001
sI4438
F0.5
sI4440
F0.5
sI4441
F1.0
sI4455
F0.8010108232726129
sI4456
F0.5
sI4458
F0.4828432219091937
sI4460
F0.4530548765744248
sI4462
F0.5
sI4464
F0.5
sI4466
F0.5
sI4469
F0.4249816634883339
sI4470
F0.5
sI4471
F0.5
sI4474
F0.5
sI4476
F0.4861855598147709
sI4477
F0.4776860709
sI4482
F0.5176855
sI4484
F0.55
sI4487
F0.4370559369552972
sI4488
F0.55
sI4489
F0.5
sI4493
F0.5
sI4497
F0.5
sI4499
F0.5
sI4500
F0.55
sI4501
F0.5
sI4503
F0.4809130306644613
sI4505
F0.55
sI4507
F0.5
sI4510
F0.55
sI4512
F0.5798459720765059
sI4513
F0.5095000000000001
sI4518
F0.843094701955
sI4519
F0.5
sI4521
F0.6451680541728003
sI4523
F0.67195
sI4525
F0.5
sI4531
F0.55
sI4540
F0.55
sI4546
F0.8062897554999999
sI4548
F0.704755
sI4549
F1.0
sI4564
F0.9641051006154073
sI4566
F0.5023852282138934
sI4567
F0.505
sI4572
F0.5022069575510831
sI4573
F0.45
sI4575
F0.4987061013323997
sI4577
F0.46077797291984113
sI4579
F0.0
sI4585
F0.55
sI4617
F0.6250166724366331
sI4618
F0.4587823741793536
sI4620
F0.5
sI4622
F0.5
sI4624
F0.5
sI4626
F0.4986
sI4628
F0.5
sI4631
F0.5
sI4632
F0.5
sI4633
F0.5
sI4636
F0.5
sI4638
F0.5
sI4639
F0.46577934337609056
sI4644
F0.5
sI4646
F0.55
sI4649
F0.4995
sI4650
F0.5
sI4651
F0.5
sI4655
F0.5
sI4659
F0.5
sI4661
F0.5
sI4662
F0.55
sI4663
F0.505
sI4665
F0.5
sI4667
F0.5
sI4669
F0.55
sI4672
F0.5005
sI4674
F0.5
sI4675
F0.50005
sI4680
F0.55
sI4681
F0.505
sI4683
F0.505
sI4685
F0.5
sI4687
F0.5
sI4693
F0.5005
sI4698
F0.8290754985497575
sI4700
F0.7608515499999999
sI4703
F0.44099271227536596
sI4704
F0.843094701955
sI4705
F0.5
sI4709
F0.505
sI4713
F0.5
sI4715
F0.55
sI4716
F0.82566077995
sI4717
F0.505
sI4719
F0.4773428727135673
sI4721
F0.5950000000000001
sI4723
F0.55
sI4727
F1.0
sI4731
F1.0
sI4742
F1.0
sI4743
F1.0
sI4748
F1.0
sI4750
F1.0
sI4752
F0.8560667977491933
sI4753
F0.4856209909800488
sI4755
F0.4771033488471871
sI4757
F0.3647953823594514
sI4759
F0.55
sI4761
F0.8974714901236864
sI4763
F0.8970544339526756
sI4766
F0.2657205
sI4767
F0.907348990557408
sI4768
F0.5
sI4771
F0.5950000000000001
sI4773
F0.3727281651639621
sI4774
F0.31640063883510755
sI4780
F0.14284627224787147
sI4782
F0.50134464
sI4783
F0.13235213578991517
sI4788
F0.6355000000000001
sI4789
F0.114383962274805
sI4791
F0.5
sI4793
F0.5
sI4795
F0.0
sI4801
F0.1167526379579989
sI4806
F0.4912284528
sI4807
F0.12709329141645
sI4809
F0.494504028
sI4811
F0.495
sI4813
F0.0
sI4815
F0.45
sI4817
F0.5
sI4820
F0.36450000000000005
sI4821
F0.0
sI4825
F0.5
sI4827
F0.5
sI4828
F0.07519925289293325
sI4837
F0.67195
sI4843
F0.55
sI4845
F0.5950000000000001
sI4846
F1.0
sI4864
F0.55
sI4870
F0.5
sI4872
F0.55
sI4873
F1.0
sI4888
F0.67195
sI4890
F0.4999888374071308
sI4891
F0.5
sI4896
F0.5
sI4897
F0.5
sI4899
F0.4999579410886791
sI4901
F0.49957941088679053
sI4903
F0.5
sI4909
F0.55
sI4942
F0.5
sI4944
F0.7778355313452086
sI4945
F0.5
sI4950
F0.5
sI4951
F0.505
sI4953
F0.8287443838245635
sI4955
F0.87290670858355
sI4957
F0.5
sI4963
F0.5
sI4968
F0.50221
sI4969
F0.5135500000000001
sI4971
F0.4331435328646954
sI4973
F0.356503986271971
sI4975
F0.55
sI4977
F0.5
sI4979
F0.5950000000000001
sI4982
F0.3089874899730023
sI4983
F0.5
sI4984
F0.5
sI4987
F0.55
sI4989
F0.443786689125274
sI4990
F0.36450000000000005
sI4999
F0.55
sI5005
F0.5
sI5007
F0.8587852317595001
sI5008
F1.0
sI5053
F0.5
sI5059
F0.5950000000000001
sI5061
F0.55
sI5062
F1.0
sI5103
F0.5177212562059704
sI5104
F0.50005
sI5106
F0.49999959994360793
sI5108
F0.5
sI5110
F0.5
sI5112
F0.5
sI5114
F0.55
sI5117
F0.5
sI5118
F0.5
sI5119
F0.5
sI5122
F0.5
sI5124
F0.5
sI5125
F0.495711927914302
sI5130
F0.5359715173284396
sI5132
F0.5521334729816026
sI5135
F0.499654755
sI5136
F0.55
sI5137
F1.0
sI5141
F0.4971167441064
sI5145
F0.5
sI5147
F0.55
sI5148
F0.5950000000000001
sI5149
F1.0
sI5151
F0.5
sI5153
F0.5
sI5158
F0.5005
sI5160
F0.5
sI5161
F0.5
sI5166
F0.5
sI5167
F0.5
sI5169
F0.5
sI5171
F0.5
sI5173
F0.5
sI5179
F0.47132401855024436
sI5184
F0.5
sI5186
F0.55
sI5189
F0.4291792611695823
sI5190
F0.5
sI5191
F0.5
sI5195
F1.0
sI5199
F1.0
sI5202
F0.5
sI5203
F0.5
sI5205
F0.44770795391145496
sI5207
F0.31868405960328766
sI5209
F0.5
sI5213
F0.6086268029090959
sI5217
F0.5
sI5219
F0.67195
sI5228
F1.0
sI5229
F0.5
sI5231
F0.67195
sI5234
F0.2487698447227881
sI5235
F0.5
sI5236
F1.0
sI5238
F0.5
sI5239
F0.505
sI5241
F0.4959670332374511
sI5243
F0.5950000000000001
sI5245
F0.5
sI5247
F1.0
sI5252
F1.0
sI5254
F1.0
sI5257
F0.5
sI5259
F0.46926121244222574
sI5260
F0.41419070627947746
sI5266
F0.55
sI5268
F0.5009958326395001
sI5269
F0.5
sI5274
F0.49195
sI5275
F0.5
sI5277
F0.5095000000000001
sI5279
F0.5005
sI5281
F0.0
sI5287
F0.67195
sI5292
F0.7342795
sI5293
F1.0
sI5295
F0.5
sI5297
F0.495
sI5301
F0.45
sI5303
F0.43197624
sI5306
F0.32805000000000006
sI5307
F0.0
sI5313
F0.5
sI5314
F1.0
sI5323
F0.5
sI5329
F0.5
sI5331
F0.5
sI5332
F1.0
sI5346
F0.4965932550405288
sI5348
F0.5
sI5351
F0.5
sI5352
F0.5
sI5353
F0.5
sI5357
F0.5
sI5361
F0.5
sI5363
F0.5
sI5364
F0.5
sI5365
F0.5
sI5367
F0.5
sI5369
F0.5
sI5371
F0.5
sI5375
F0.487438843463457
sI5379
F0.5
sI5381
F0.55
sI5390
F0.5
sI5391
F0.5
sI5393
F0.55
sI5396
F0.5
sI5397
F0.5
sI5398
F1.0
sI5400
F0.5
sI5401
F0.5
sI5403
F0.5
sI5405
F0.5
sI5407
F0.5
sI5409
F0.5
sI5411
F0.5
sI5414
F0.5
sI5415
F0.5
sI5416
F0.5
sI5419
F0.5
sI5421
F0.5
sI5422
F0.42736188673235637
sI5429
F0.5
sI5433
F0.505
sI5435
F0.5
sI5444
F1.0
sI5445
F0.50005
sI5447
F0.5
sI5450
F0.26155285846327303
sI5451
F0.5
sI5452
F0.5
sI5462
F1.0
sI5474
F1.0
sI5478
F1.0
sI5481
F0.5045499778146877
sI5483
F0.55
sI5486
F0.2792214877896779
sI5487
F0.55
sI5488
F0.5
sI5492
F1.0
sI5496
F1.0
sI5499
F0.5004997781468765
sI5500
F0.5
sI5502
F0.3101143304921776
sI5504
F0.11359875521975232
sI5506
F0.55
sI5508
F0.2168412068122062
sI5509
F0.12219989076744085
sI5511
F0.2430036101517824
sI5513
F0.2326779259951666
sI5515
F0.0
sI5517
F0.11420864007400366
sI5519
F0.55
sI5522
F0.08620698557857463
sI5523
F0.0
sI5527
F0.55
sI5529
F0.4937731165401174
sI5530
F0.10444384078281393
sI5535
F0.11337746152992183
sI5537
F0.39604736011916036
sI5540
F0.07406502052301736
sI5541
F0.0
sI5546
F0.215233605
sI5552
F0.0
sI5553
F0.5950000000000001
sI5554
F1.0
sI5556
F0.4605831954660842
sI5558
F0.31221140332359093
sI5563
F0.5004128998772001
sI5565
F0.533413402435
sI5566
F0.4773822208577788
sI5571
F0.5950000000000001
sI5572
F0.5095000000000001
sI5574
F0.59985149905
sI5576
F0.7342795
sI5578
F0.0
sI5584
F0.10000939732789864
sI5590
F0.5
sI5592
F0.5
sI5593
F0.505
sI5598
F0.5
sI5599
F0.5
sI5601
F0.5
sI5603
F0.55
sI5605
F0.5
sI5611
F0.55
sI5616
F0.5950000000000001
sI5617
F1.0
sI5619
F0.5
sI5621
F0.5
sI5625
F0.5
sI5627
F0.5950000000000001
sI5630
F0.49579410886790537
sI5631
F0.5
sI5632
F1.0
sI5637
F0.5
sI5638
F1.0
sI5647
F0.5
sI5653
F0.5
sI5655
F0.5
sI5656
F1.0
sI5670
F0.5
sI5671
F0.5
sI5673
F0.4953263885370923
sI5675
F0.7342795
sI5677
F0.5
sI5679
F1.0
sI5684
F1.0
sI5686
F1.0
sI5689
F0.5
sI5691
F0.4637142520935392
sI5692
F0.405
sI5697
F0.5
sI5699
F0.67195
sI5702
F0.29801358709068465
sI5703
F0.5
sI5704
F1.0
sI5708
F1.0
sI5712
F1.0
sI5715
F0.5
sI5716
F1.0
sI5718
F0.384531648059085
sI5720
F0.11499837094014831
sI5725
F0.5
sI5727
F0.55
sI5728
F0.5
sI5734
F1.0
sI5736
F1.0
sI5746
F0.55
sI5755
F0.55
sI5761
F0.55
sI5763
F0.55
sI5764
F1.0
sI5781
F0.55
sI5782
F1.0
sI5787
F0.7608515499999999
sI5788
F1.0
sI5790
F0.5
sI5792
F0.42214697981058535
sI5836
F0.67195
sI5842
F0.55
sI5844
F0.5
sI5845
F1.0
sI5860
F0.4739398130830403
sI5862
F0.500005
sI5863
F0.405
sI5868
F0.4999951
sI5869
F0.405
sI5871
F0.5
sI5873
F0.5
sI5875
F0.5
sI5881
F0.471541095
sI5914
F0.7342795
sI5916
F0.21053886177544157
sI5917
F0.060275120895259646
sI5922
F0.5116982634999999
sI5923
F0.5
sI5925
F0.027458071314515272
sI5927
F0.30907495996314654
sI5929
F0.5
sI5935
F0.7847663949999999
sI5940
F0.9452905054342439
sI5941
F0.4249755
sI5943
F0.07201957919126471
sI5945
F0.7342795
sI5947
F0.7847663949999999
sI5949
F0.5
sI5951
F0.5950000000000001
sI5954
F0.18735352999186514
sI5955
F0.5
sI5956
F0.5
sI5959
F0.8062897554999999
sI5961
F0.55
sI5962
F0.405
sI5971
F0.5
sI5977
F0.8970544339526756
sI5979
F0.7342795
sI5980
F1.0
sI6025
F0.55
sI6031
F0.9452905054342439
sI6033
F0.55
sI6034
F1.0
sI6076
F0.48645
sI6078
F0.5
sI6079
F0.45
sI6084
F0.5950000000000001
sI6085
F0.45
sI6087
F0.5
sI6089
F0.5
sI6091
F0.5
sI6097
F0.495
sI6102
F0.55
sI6103
F0.45
sI6105
F0.5
sI6107
F0.5
sI6109
F0.55
sI6111
F0.5
sI6113
F0.5
sI6116
F0.5
sI6117
F0.5
sI6118
F0.5
sI6121
F0.5
sI6123
F0.5
sI6124
F0.45
sI6133
F0.5
sI6139
F0.5
sI6141
F0.5
sI6142
F1.0
sI6156
F0.87290670858355
sI6157
F0.45
sI6159
F0.08131649321845764
sI6161
F0.55
sI6163
F0.5
sI6165
F0.5
sI6167
F0.5
sI6170
F0.1937102445
sI6171
F0.5
sI6172
F0.5
sI6175
F0.5
sI6177
F0.5950000000000001
sI6178
F0.45
sI6183
F1.0
sI6188
F1.0
sI6190
F1.0
sI6194
F1.0
sI6198
F1.0
sI6202
F1.0
sI6204
F1.0
sI6211
F0.67195
sI6213
F0.4905
sI6214
F0.45
sI6219
F0.9452905054342439
sI6220
F0.36450000000000005
sI6222
F0.405
sI6224
F0.0
sI6226
F0.55
sI6232
F0.67195
sI6241
F0.55
sI6247
F0.67195
sI6249
F0.55
sI6250
F1.0
sI6265
F0.5
sI6267
F0.5
sI6268
F0.5
sI6273
F0.5950000000000001
sI6274
F0.5
sI6276
F0.45
sI6278
F0.5
sI6280
F0.0
sI6286
F0.0
sI6349
F0.55
sI6355
F0.55
sI6357
F0.5
sI6358
F1.0
sI6403
F0.6355000000000001
sI6409
F0.55
sI6411
F0.8587852317595001
sI6412
F1.0
sI6427
F0.6355000000000001
sI6429
F0.10038307838979199
sI6430
F0.05727611282933486
sI6435
F0.11039700010636165
sI6436
F0.084680827333532
sI6438
F0.0675425858836496
sI6440
F0.1217192376271135
sI6442
F0.704755
sI6448
F0.5950000000000001
sI6561
F0.23866661891054808
sI6563
F0.5287334228451714
sI6566
F0.49918351507411673
sI6567
F0.5232378675616866
sI6568
F0.5
sI6572
F0.581415934158135
sI6576
F0.5611423821915671
sI6578
F0.6355000000000001
sI6579
F0.5180114103923306
sI6580
F0.5
sI6582
F0.5003404017562686
sI6584
F0.5
sI6586
F0.5
sI6590
F0.49820581179345574
sI6594
F0.4654285981495217
sI6596
F0.5
sI6605
F0.5
sI6606
F0.499809115
sI6608
F0.495
sI6611
F0.5007987192804769
sI6612
F0.5005
sI6613
F0.5
sI6615
F0.5079957537349945
sI6616
F0.48751411839724595
sI6618
F0.49958549999999996
sI6620
F0.49837869999999995
sI6622
F0.5950000000000001
sI6624
F0.505
sI6626
F0.5950000000000001
sI6629
F0.45
sI6630
F0.5950000000000001
sI6631
F0.5
sI6634
F0.5950000000000001
sI6636
F0.5
sI6637
F0.5
sI6644
F0.47229090201521023
sI6648
F0.5095000000000001
sI6650
F0.5
sI6659
F0.5
sI6660
F0.49518357767230964
sI6662
F0.4930375710460968
sI6665
F0.5039176892809681
sI6666
F0.55
sI6667
F1.0
sI6677
F0.5
sI6689
F0.45
sI6693
F0.505
sI6695
F0.0
sI6696
F0.5080500000000001
sI6698
F0.495
sI6701
F0.5
sI6702
F0.55
sI6703
F1.0
sI6707
F0.45
sI6711
F0.505
sI6713
F0.5
sI6714
F0.55
sI6715
F1.0
sI6717
F0.5
sI6719
F0.55
sI6723
F0.22942729621418811
sI6724
F0.164588396685946
sI6726
F0.2278829864885728
sI6728
F0.4937103402262944
sI6730
F0.5018492437207941
sI6732
F0.15067815279253388
sI6734
F0.8587852317595001
sI6737
F0.252641823421372
sI6738
F0.7342795
sI6739
F0.08338590849833284
sI6742
F0.5352215511278039
sI6744
F0.22011832928298425
sI6745
F0.07554487460918058
sI6750
F0.1838086721647979
sI6752
F0.4820536179345579
sI6755
F0.17810115180712427
sI6756
F0.16335839377912617
sI6757
F0.1326091584907001
sI6761
F0.4385238699341288
sI6765
F0.08075394752293549
sI6767
F0.55
sI6768
F0.5691860160358237
sI6769
F0.32805000000000006
sI6771
F0.14937749644436024
sI6773
F0.47314911526243764
sI6775
F0.5
sI6778
F0.1706327932764991
sI6780
F0.1791879647142503
sI6781
F0.06133542224094218
sI6786
F0.704755
sI6787
F0.2339817360593915
sI6789
F0.11411548262221186
sI6791
F0.5950000000000001
sI6793
F0.6355000000000001
sI6799
F0.4905
sI6806
F0.5080500000000001
sI6810
F0.5
sI6812
F0.5
sI6821
F1.0
sI6822
F0.5
sI6824
F0.495
sI6827
F0.5
sI6828
F0.5
sI6829
F0.5
sI6839
F0.5
sI6851
F0.5
sI6855
F0.5
sI6857
F0.0
sI6858
F0.499995
sI6860
F0.5
sI6863
F0.5
sI6864
F0.5
sI6865
F0.5
sI6869
F1.0
sI6873
F1.0
sI6876
F0.49995
sI6877
F0.5
sI6879
F0.5
sI6881
F0.5
sI6883
F0.5
sI6893
F0.5
sI6905
F0.45
sI6909
F0.5
sI6911
F0.0
sI6941
F0.405
sI6945
F0.5
sI6947
F0.5
sI6956
F1.0
sI6957
F0.4672976224425034
sI6959
F0.39645522839614494
sI6962
F0.29524500000000004
sI6963
F0.5950000000000001
sI6964
F1.0
sI6966
F0.16359756998024053
sI6968
F0.704755
sI6971
F0.4781609111257608
sI6972
F0.7342795
sI6973
F0.45
sI6977
F1.0
sI6981
F1.0
sI6984
F0.15145508396404375
sI6985
F0.10706160504833284
sI6987
F0.12715966350964575
sI6989
F0.4264505100235507
sI6991
F0.495
sI6995
F0.3945786430389354
sI6999
F0.03387045999347266
sI7001
F0.5950000000000001
sI7010
F1.0
sI7011
F0.10953245400651865
sI7013
F0.2964461209123034
sI7016
F0.1937102445
sI7017
F0.495
sI7018
F0.45
sI7020
F0.67195
sI7021
F0.13604974155234978
sI7023
F0.225889938064098
sI7025
F0.843094701955
sI7027
F0.6355000000000001
sI7029
F1.0
sI7034
F1.0
sI7036
F1.0
sI7039
F0.11262361007165035
sI7041
F0.18225001676521613
sI7042
F0.04405864196859035
sI7047
F0.5110115959336142
sI7048
F0.5
sI7050
F0.4995
sI7052
F0.5
sI7054
F0.5
sI7056
F0.4996
sI7058
F0.5892600550977737
sI7061
F0.4259482609121036
sI7062
F0.5679715797170432
sI7063
F0.5
sI7066
F0.5
sI7068
F0.5
sI7069
F0.5
sI7074
F0.5
sI7076
F0.500005
sI7079
F0.5
sI7080
F0.5
sI7081
F0.5
sI7085
F0.4998125408373883
sI7089
F0.4989751036687985
sI7091
F0.4981254083738829
sI7092
F0.5
sI7093
F0.505
sI7095
F0.5
sI7097
F0.4992047926164118
sI7099
F0.5
sI7102
F0.5950000000000001
sI7104
F0.5
sI7105
F0.5
sI7110
F0.5
sI7111
F0.5
sI7113
F0.5
sI7115
F0.5
sI7117
F0.5
sI7123
F0.5
sI7128
F0.5119531688272669
sI7130
F0.5153575300169597
sI7133
F0.49929736654191975
sI7134
F0.5950000000000001
sI7135
F1.0
sI7139
F0.49891257067948935
sI7143
F0.5
sI7145
F0.5
sI7146
F0.55
sI7147
F1.0
sI7149
F0.5
sI7151
F0.5950000000000001
sI7157
F0.4687923867092546
sI7161
F0.5
sI7163
F0.41525876800536365
sI7172
F0.31765221215508704
sI7173
F0.5066490964572871
sI7175
F0.49227048228643483
sI7178
F0.4696720254048315
sI7179
F0.55
sI7180
F1.0
sI7182
F0.55
sI7183
F1.0
sI7185
F0.5
sI7187
F0.55
sI7191
F0.5
sI7193
F0.5
sI7196
F0.5
sI7197
F0.5
sI7198
F1.0
sI7203
F0.5
sI7204
F1.0
sI7210
F0.18572723457391993
sI7212
F0.22983021249719568
sI7213
F0.09265100944259205
sI7218
F0.12155109402492462
sI7219
F0.10062244451969832
sI7221
F0.10294556604732451
sI7223
F0.10000331044919306
sI7225
F0.495
sI7231
F0.495
sI7236
F0.512491362556337
sI7237
F0.16705580966851072
sI7239
F0.21381134940180574
sI7241
F0.44372072810545427
sI7243
F0.704755
sI7245
F0.10618417969465244
sI7247
F0.32221623472708505
sI7250
F0.10000049235784131
sI7251
F0.19921167614474378
sI7252
F0.120944988610596
sI7255
F0.704755
sI7257
F0.5360280921549999
sI7258
F0.36450000000000005
sI7267
F0.0
sI7273
F0.0
sI7275
F0.0
sI7292
F0.5
sI7296
F0.505
sI7298
F0.55
sI7307
F0.5
sI7308
F0.5306650830113653
sI7310
F0.5950000000000001
sI7313
F0.4999579410886791
sI7314
F0.5950000000000001
sI7315
F0.5
sI7325
F0.5
sI7337
F0.5
sI7341
F0.45
sI7343
F0.0
sI7344
F0.505
sI7346
F0.55
sI7349
F0.5083660000000001
sI7350
F0.5
sI7351
F0.5
sI7355
F0.5
sI7359
F0.5
sI7361
F0.5
sI7362
F0.5950000000000001
sI7363
F0.5
sI7365
F0.5
sI7367
F0.55
sI7369
F0.5
sI7379
F0.5
sI7391
F0.405
sI7395
F0.45
sI7397
F0.0
sI7427
F0.5
sI7431
F0.5
sI7433
F0.5
sI7442
F1.0
sI7443
F0.5
sI7445
F0.5
sI7448
F0.5
sI7449
F0.5
sI7450
F1.0
sI7452
F0.22676265135568652
sI7454
F0.8062897554999999
sI7457
F0.4646087870847939
sI7458
F0.907348990557408
sI7459
F0.5
sI7463
F0.567579182995
sI7467
F0.36450000000000005
sI7469
F0.6355000000000001
sI7470
F0.8062897554999999
sI7471
F0.585086903853355
sI7473
F0.20683717216384362
sI7475
F0.7342795
sI7477
F0.6355000000000001
sI7481
F0.11380988890034556
sI7485
F0.035993118214718574
sI7487
F0.7608515499999999
sI7496
F0.45
sI7497
F0.6331865569363828
sI7499
F0.7342795
sI7502
F0.3982043126353039
sI7503
F0.704755
sI7504
F1.0
sI7506
F0.82566077995
sI7507
F0.11291758158331619
sI7509
F0.12071045887912604
sI7511
F0.6355000000000001
sI7513
F0.5
sI7515
F0.41269500000000003
sI7517
F0.6355000000000001
sI7520
F0.45
sI7521
F0.5
sI7522
F0.5
sI7525
F0.67195
sI7527
F0.843094701955
sI7528
F0.1020505801729015
sI7541
F0.5
sI7553
F0.5
sI7557
F0.45
sI7559
F0.0
sI7589
F0.5
sI7593
F0.5
sI7595
F0.5
sI7604
F1.0
sI7605
F0.5
sI7607
F0.5
sI7610
F0.5
sI7611
F0.5
sI7612
F0.5
sI7676
F0.5
sI7688
F0.29524500000000004
sI7692
F0.30909600000000004
sI7694
F0.0
sI7697
F0.5917782902455
sI7701
F0.033023307433825214
sI7703
F0.67195
sI7712
F1.0
sI7713
F0.1697673019904032
sI7715
F0.704755
sI7718
F0.33903631018334374
sI7719
F0.704755
sI7720
F0.5
sI7730
F0.5
sI7742
F0.1937102445
sI7746
F0.45
sI7748
F0.0
sI7749
F0.5993410791659501
sI7751
F0.704755
sI7754
F0.5976572237725194
sI7755
F0.6355000000000001
sI7756
F0.07504731764849956
sI7760
F1.0
sI7764
F1.0
sI7767
F0.704755
sI7768
F0.10332691122578755
sI7770
F0.2633162584523523
sI7772
F0.9709251314984799
sI7774
F0.7342795
sI7776
F0.5
sI7778
F0.5
sI7781
F0.5
sI7782
F0.5
sI7783
F0.5
sI7787
F0.6605431554056552
sI7791
F0.6290851432955913
sI7793
F0.7342795
sI7794
F0.55
sI7795
F0.5
sI7797
F0.5
sI7799
F0.5
sI7801
F0.5
sI7805
F0.5
sI7809
F0.5
sI7811
F0.5
sI7820
F0.5
sI7821
F0.5
sI7823
F0.5
sI7826
F0.49204792616411813
sI7827
F0.5
sI7828
F1.0
sI7830
F0.5
sI7831
F0.5
sI7833
F0.5
sI7835
F0.55
sI7837
F0.5
sI7839
F0.5
sI7841
F0.704755
sI7844
F0.5
sI7845
F0.67195
sI7846
F0.5
sI7849
F0.5
sI7851
F0.5
sI7852
F0.5
sI7859
F0.5
sI7863
F0.5
sI7865
F0.5
sI7874
F1.0
sI7875
F0.505
sI7877
F0.5
sI7880
F0.5
sI7881
F0.55
sI7882
F1.0
sI7892
F0.32805000000000006
sI7904
F0.36450000000000005
sI7908
F0.45
sI7910
F0.0
sI7911
F0.5
sI7913
F0.5
sI7916
F0.5
sI7917
F0.5
sI7918
F1.0
sI7922
F1.0
sI7926
F1.0
sI7929
F0.5
sI7930
F1.0
sI7932
F0.5
sI7934
F0.5
sI7938
F0.8062897554999999
sI7939
F0.09613382065276713
sI7941
F0.10294556604732451
sI7943
F0.55
sI7945
F0.5
sI7947
F0.10481401523284901
sI7949
F0.7342795
sI7952
F0.049238545109180555
sI7953
F0.704755
sI7954
F0.45
sI7957
F0.67195
sI7959
F0.7847663949999999
sI7960
F0.45
sI7965
F0.5459059
sI7967
F0.6355000000000001
sI7970
F0.31061802976254704
sI7971
F0.6355000000000001
sI7972
F1.0
sI7976
F0.10001989605950747
sI7980
F0.13672718610306533
sI7982
F0.7847663949999999
sI7983
F0.704755
sI7984
F1.0
sI7986
F0.633026703475
sI7988
F0.7847663949999999
sI7993
F0.0
sI7995
F0.0
sI8001
F0.0
sI8006
F0.0
sI8008
F0.0
sI8014
F0.0
sI8019
F0.5248649703762611
sI8020
F0.5
sI8022
F0.49999545
sI8024
F0.5
sI8026
F0.5
sI8028
F0.6035361191685767
sI8030
F0.6355000000000001
sI8033
F0.5
sI8034
F0.6355000000000001
sI8035
F0.5249755
sI8038
F0.5
sI8040
F0.5
sI8041
F0.45
sI8046
F0.46503659449505563
sI8048
F0.49995
sI8051
F0.5
sI8052
F0.5
sI8053
F0.49905
sI8057
F0.5
sI8061
F0.5
sI8063
F0.5
sI8064
F0.5
sI8065
F0.36450000000000005
sI8067
F0.5
sI8069
F0.5052601
sI8071
F0.5
sI8074
F0.55
sI8076
F0.5
sI8077
F0.5
sI8082
F0.6355000000000001
sI8083
F0.505
sI8085
F0.5
sI8087
F0.0
sI8089
F0.5950000000000001
sI8095
F0.5
sI8100
F0.2061058393850158
sI8102
F0.21981662300371674
sI8105
F0.11775055500565046
sI8106
F0.8587852317595001
sI8107
F1.0
sI8111
F0.032168321544815554
sI8115
F0.5180500000000001
sI8117
F0.55
sI8118
F0.907348990557408
sI8119
F1.0
sI8121
F0.5
sI8123
F0.5950000000000001
sI8129
F0.2303186226100638
sI8133
F0.5
sI8135
F0.9452905054342439
sI8144
F0.5
sI8145
F0.5
sI8147
F0.9452905054342439
sI8150
F0.5465984500000001
sI8151
F0.5
sI8152
F1.0
sI8154
F0.885616037725195
sI8155
F1.0
sI8157
F0.5
sI8159
F0.0
sI8163
F0.405
sI8165
F0.0
sI8169
F0.55
sI8170
F1.0
sI8175
F0.5
sI8176
F1.0
sI8182
F0.51570141796
sI8184
F0.53040456064
sI8185
F0.405
sI8190
F0.8062897554999999
sI8191
F0.5589042616000001
sI8193
F0.585786322495
sI8195
F0.7608515499999999
sI8197
F0.5950000000000001
sI8203
F0.0
sI8208
F0.15041094495055612
sI8209
F0.04049351339867507
sI8211
F0.114383962274805
sI8213
F0.13752209563887094
sI8215
F0.44513468999999994
sI8217
F0.12252537376747209
sI8219
F0.67195
sI8222
F0.14932808334998027
sI8223
F0.7342795
sI8224
F0.023551598523307002
sI8227
F0.0
sI8229
F0.0
sI8239
F0.5
sI8245
F0.704755
sI8247
F0.67195
sI8248
F1.0
sI8262
F0.5
sI8264
F0.55
sI8267
F0.5
sI8268
F0.5
sI8269
F0.5
sI8273
F1.0
sI8277
F1.0
sI8280
F0.5
sI8281
F0.5
sI8283
F0.5
sI8285
F0.5
sI8287
F0.5
sI8291
F0.5
sI8295
F0.5
sI8297
F0.5
sI8306
F1.0
sI8307
F0.5
sI8309
F0.5
sI8312
F0.5
sI8313
F0.5
sI8314
F0.5
sI8316
F0.5
sI8317
F0.5
sI8319
F0.5
sI8321
F0.0
sI8323
F0.5
sI8325
F1.0
sI8332
F1.0
sI8335
F0.5
sI8337
F0.5
sI8338
F0.5
sI8345
F0.027108715768840146
sI8349
F0.505
sI8351
F0.5950000000000001
sI8360
F1.0
sI8361
F0.505
sI8363
F0.55
sI8366
F0.45
sI8367
F0.55
sI8368
F1.0
sI8378
F1.0
sI8390
F1.0
sI8394
F1.0
sI8397
F0.20484600944259207
sI8399
F0.0
sI8403
F0.5
sI8404
F1.0
sI8412
F1.0
sI8415
F0.6355000000000001
sI8416
F1.0
sI8418
F0.45
sI8420
F0.0
sI8424
F0.5
sI8425
F0.45
sI8427
F0.405
sI8429
F0.55
sI8431
F0.5
sI8433
F1.0
sI8438
F1.0
sI8440
F1.0
sI8443
F0.0
sI8445
F0.0
sI8451
F0.114383962274805
sI8453
F0.55
sI8456
F0.09836723809463585
sI8457
F0.5
sI8458
F0.23914845
sI8462
F1.0
sI8466
F1.0
sI8469
F0.0
sI8474
F0.0
sI8476
F0.0
sI8479
F0.5950000000000001
sI8481
F0.7847663949999999
sI8482
F0.405
sI8488
F1.0
sI8490
F1.0
sI8500
F0.0
sI8506
F0.5
sI8508
F0.5
sI8509
F0.5
sI8514
F0.5928637687017771
sI8515
F0.6701965152240539
sI8517
F0.5
sI8519
F0.5
sI8521
F0.704755
sI8527
F0.5
sI8532
F0.5
sI8533
F0.4759236879791113
sI8535
F0.4995
sI8537
F0.5
sI8539
F0.5
sI8541
F0.4605006863862615
sI8543
F0.5
sI8546
F0.5
sI8547
F0.5
sI8548
F0.34888812857321766
sI8551
F0.5
sI8553
F0.5
sI8554
F0.29524500000000004
sI8563
F0.5
sI8569
F0.7342795
sI8571
F0.5
sI8572
F1.0
sI8586
F0.87290670858355
sI8587
F1.0
sI8589
F0.5
sI8591
F0.6355000000000001
sI8595
F0.49762131361154044
sI8597
F0.47190495861926796
sI8600
F0.36450000000000005
sI8601
F0.5950000000000001
sI8602
F1.0
sI8607
F0.5
sI8608
F1.0
sI8613
F0.19544685736366138
sI8615
F0.1136136775140634
sI8618
F0.15984376462498606
sI8619
F0.7342795
sI8620
F1.0
sI8624
F0.1001785852074798
sI8628
F0.36821803183750257
sI8630
F0.10000903835749694
sI8631
F0.6355000000000001
sI8632
F1.0
sI8634
F0.5
sI8636
F0.7608515499999999
sI8643
F0.5
sI8644
F1.0
sI8649
F0.5
sI8650
F1.0
sI8652
F0.5
sI8654
F0.0
sI8671
F0.5
sI8677
F0.7608515499999999
sI8679
F0.704755
sI8680
F1.0
sI8695
F0.1390416453479934
sI8697
F0.13535213152783468
sI8698
F0.06078832729528464
sI8703
F0.10465332065340621
sI8704
F0.10147143177052377
sI8706
F0.1011057015510612
sI8708
F0.1
sI8710
F0.10000003557574845
sI8716
F0.0
sI8750
F0.4995
sI8754
F0.500095
sI8756
F0.5
sI8765
F0.5
sI8766
F0.5102439894999999
sI8768
F0.55
sI8771
F0.5
sI8772
F0.55
sI8773
F0.5
sI8783
F0.5
sI8795
F0.45
sI8799
F0.5
sI8801
F0.0
sI8802
F0.5
sI8804
F0.5
sI8807
F0.5
sI8808
F0.5
sI8809
F0.5
sI8813
F0.5
sI8817
F0.5
sI8819
F0.5
sI8820
F0.55
sI8821
F0.5
sI8823
F0.5
sI8825
F0.5
sI8827
F0.5
sI8837
F0.39193732657039254
sI8849
F0.45
sI8853
F0.405
sI8855
F0.0
sI8885
F0.5
sI8889
F0.5
sI8891
F0.5
sI8900
F0.5
sI8901
F0.5
sI8903
F0.5
sI8906
F1.0
sI8907
F0.5
sI8908
F1.0
sI8910
F0.14692708377922384
sI8912
F0.6355000000000001
sI8915
F0.09656148190663172
sI8916
F0.67195
sI8917
F0.5065462598253465
sI8921
F0.5485631050000002
sI8925
F0.5367205
sI8927
F0.6355000000000001
sI8928
F0.6355000000000001
sI8929
F0.405
sI8931
F0.12091154799833286
sI8933
F0.6355000000000001
sI8935
F0.55
sI8939
F0.4501616777167501
sI8943
F0.147262587312245
sI8945
F0.9249526823515004
sI8954
F0.6267299989225195
sI8955
F0.5
sI8957
F0.55
sI8960
F0.405
sI8961
F0.8587852317595001
sI8962
F0.45
sI8964
F0.7608515499999999
sI8965
F0.08902757970430905
sI8967
F0.0675425858836496
sI8969
F0.6355000000000001
sI8971
F0.55
sI8973
F0.03589489938459262
sI8975
F0.5950000000000001
sI8978
F0.405
sI8979
F0.6355000000000001
sI8980
F0.09265100944259205
sI8983
F0.5
sI8985
F0.5
sI8986
F0.405
sI8999
F0.5
sI9011
F0.5
sI9015
F0.5
sI9017
F0.0
sI9047
F0.45
sI9051
F0.5
sI9053
F0.5
sI9062
F1.0
sI9063
F0.4995
sI9065
F0.5
sI9068
F0.5
sI9069
F0.5
sI9070
F0.5
sI9134
F0.5
sI9146
F0.32805000000000006
sI9150
F0.29524500000000004
sI9152
F0.0
sI9155
F0.6228339300631862
sI9159
F0.5728067290000001
sI9161
F0.67195
sI9170
F1.0
sI9171
F0.05783161858180381
sI9173
F0.67195
sI9176
F0.32805000000000006
sI9177
F0.67195
sI9178
F0.5
sI9188
F0.45
sI9200
F0.1937102445
sI9204
F0.026167381651368022
sI9206
F0.0
sI9207
F0.56928708055
sI9209
F0.704755
sI9212
F0.45
sI9213
F0.6355000000000001
sI9214
F0.5257450000000001
sI9218
F1.0
sI9222
F1.0
sI9225
F0.67195
sI9226
F0.0443146905982625
sI9228
F0.05666822955638203
sI9230
F0.55
sI9232
F0.5950000000000001
sI9234
F0.5
sI9236
F0.5
sI9239
F0.5
sI9240
F0.5
sI9241
F0.5
sI9245
F0.4996953333553404
sI9249
F0.5037656595860281
sI9251
F0.55
sI9252
F0.55
sI9253
F0.5
sI9255
F0.5
sI9257
F0.5
sI9259
F0.5
sI9263
F0.50005
sI9267
F0.5
sI9269
F0.5
sI9278
F0.48125408373882933
sI9279
F0.5
sI9281
F0.5
sI9284
F0.5
sI9285
F0.5
sI9286
F0.5
sI9288
F0.5
sI9289
F0.5
sI9291
F0.5
sI9293
F0.5
sI9295
F0.5
sI9297
F0.45
sI9299
F0.55
sI9302
F0.5
sI9303
F0.55
sI9304
F0.5
sI9307
F0.5
sI9309
F0.5
sI9310
F0.5
sI9317
F0.545610655
sI9321
F0.5
sI9323
F0.55
sI9332
F0.5
sI9333
F0.5
sI9335
F0.6355000000000001
sI9338
F1.0
sI9339
F0.5
sI9340
F1.0
sI9350
F0.32805000000000006
sI9362
F0.45
sI9366
F0.505
sI9368
F0.0
sI9369
F0.5
sI9371
F0.5950000000000001
sI9374
F1.0
sI9375
F0.5
sI9376
F1.0
sI9380
F0.5
sI9384
F0.5
sI9386
F0.5
sI9387
F0.5
sI9388
F1.0
sI9390
F1.0
sI9396
F0.6355000000000001
sI9397
F0.140690291774805
sI9399
F0.10294556604732451
sI9401
F0.55
sI9403
F0.55
sI9405
F0.09827035587343858
sI9407
F0.6355000000000001
sI9410
F0.08338590849833284
sI9411
F0.6355000000000001
sI9412
F0.10282514305792742
sI9415
F0.55
sI9417
F0.5
sI9418
F0.45
sI9423
F0.49600647214530075
sI9425
F0.5
sI9428
F0.34577107770434967
sI9429
F0.907348990557408
sI9430
F0.5
sI9434
F0.1792082457678391
sI9438
F0.22511577375191763
sI9440
F0.885616037725195
sI9441
F0.5
sI9442
F0.5
sI9444
F0.405
sI9446
F0.55
sI9448
F0.5
sI9451
F0.0
sI9453
F0.0
sI9459
F0.0
sI9464
F0.0
sI9466
F0.0
sI9472
F0.0
sI9485
F1.0
sI9497
F1.0
sI9501
F1.0
sI9533
F1.0
sI9537
F1.0
sI9548
F1.0
sI9549
F1.0
sI9554
F1.0
sI9556
F1.0
sI9620
F1.0
sI9632
F1.0
sI9636
F1.0
sI9641
F1.0
sI9645
F1.0
sI9656
F1.0
sI9657
F1.0
sI9662
F1.0
sI9664
F1.0
sI9674
F1.0
sI9686
F1.0
sI9690
F1.0
sI9693
F1.0
sI9698
F1.0
sI9700
F1.0
sI9704
F1.0
sI9708
F1.0
sI9712
F1.0
sI9714
F1.0
sI9782
F1.0
sI9794
F1.0
sI9798
F1.0
sI9890
F1.0
sI9902
F1.0
sI9906
F1.0
sI9938
F1.0
sI9942
F1.0
sI9953
F1.0
sI9954
F1.0
sI9959
F1.0
sI9961
F1.0
sI9965
F1.0
sI9969
F1.0
sI9980
F1.0
sI9981
F1.0
sI9986
F1.0
sI9988
F1.0
sI9998
F1.0
sI10010
F1.0
sI10014
F1.0
sI10017
F1.0
sI10022
F1.0
sI10024
F1.0
sI10028
F1.0
sI10032
F1.0
sI10036
F1.0
sI10038
F1.0
sI10052
F1.0
sI10064
F1.0
sI10068
F1.0
sI10100
F1.0
sI10104
F1.0
sI10115
F1.0
sI10116
F1.0
sI10121
F1.0
sI10123
F1.0
sI10125
F1.0
sI10130
F1.0
sI10132
F1.0
sI10136
F1.0
sI10140
F1.0
sI10144
F1.0
sI10146
F1.0
sI10154
F1.0
sI10158
F1.0
sI10169
F1.0
sI10170
F1.0
sI10175
F1.0
sI10177
F1.0
sI10206
F0.49460878665280344
sI10208
F0.495
sI10211
F0.5
sI10212
F0.50095
sI10213
F0.505
sI10217
F0.45
sI10221
F0.5
sI10223
F0.5
sI10224
F0.494155
sI10225
F0.45
sI10227
F0.45
sI10229
F0.5
sI10231
F0.5
sI10235
F0.4995
sI10239
F0.5
sI10241
F0.5
sI10250
F0.5
sI10251
F0.45
sI10253
F0.495
sI10256
F0.45
sI10257
F0.5
sI10258
F0.5
sI10260
F0.5
sI10261
F0.5
sI10263
F0.5
sI10265
F0.0
sI10267
F0.5
sI10269
F0.5
sI10271
F0.0
sI10275
F0.5
sI10276
F0.5
sI10279
F0.5
sI10281
F0.5
sI10282
F0.5
sI10289
F0.019400016123621494
sI10293
F0.12788913366540078
sI10295
F0.0819737250915471
sI10304
F0.054709494565756175
sI10305
F0.514
sI10307
F0.5
sI10310
F1.0
sI10311
F0.5
sI10312
F1.0
sI10322
F0.055803171260684
sI10334
F0.405
sI10338
F0.5
sI10340
F0.0
sI10341
F0.5
sI10343
F0.0
sI10347
F0.55
sI10348
F1.0
sI10356
F0.45
sI10358
F0.0
sI10359
F0.5950000000000001
sI10360
F1.0
sI10362
F1.0
sI10368
F0.11976986540568939
sI10369
F0.10227443236940445
sI10371
F0.10284262048127715
sI10373
F0.058292346907915855
sI10375
F0.4865008244275167
sI10377
F0.11265216833671254
sI10379
F0.5950000000000001
sI10382
F0.03589489938459262
sI10383
F0.6355000000000001
sI10384
F0.37592234488425835
sI10387
F0.0
sI10389
F0.0
sI10395
F0.06810590397814122
sI10397
F0.35924878154250006
sI10400
F0.04557796202390828
sI10401
F0.16442227091242756
sI10402
F0.049238545109180555
sI10406
F0.10329896618187166
sI10410
F0.19011263090673192
sI10412
F0.9917883983658696
sI10413
F0.0
sI10418
F0.0
sI10420
F0.0
sI10423
F0.4779
sI10425
F0.495
sI10426
F0.405
sI10431
F0.67195
sI10432
F0.405
sI10434
F0.45
sI10436
F0.0
sI10438
F0.55
sI10444
F0.0
sI10451
F0.5
sI10455
F0.5095000000000001
sI10457
F0.55
sI10466
F1.0
sI10467
F0.45
sI10469
F0.5
sI10472
F0.5
sI10473
F0.5
sI10474
F0.5
sI10484
F0.5
sI10496
F0.5
sI10500
F0.5
sI10502
F0.0
sI10503
F0.45
sI10505
F0.0
sI10509
F0.55
sI10510
F0.5
sI10518
F1.0
sI10521
F0.495
sI10522
F0.5
sI10524
F0.5
sI10526
F0.0
sI10528
F0.5
sI10538
F0.054709494565756175
sI10550
F0.5
sI10554
F0.45
sI10556
F0.0
sI10590
F0.09470992076353851
sI10592
F0.0
sI10602
F0.45
sI10604
F0.0
sI10608
F0.55
sI10609
F1.0
sI10611
F0.09736617055414236
sI10613
F0.704755
sI10616
F0.03589489938459262
sI10617
F0.67195
sI10618
F0.36450000000000005
sI10622
F1.0
sI10626
F1.0
sI10629
F0.0
sI10634
F0.0
sI10636
F0.0
sI10640
F0.200280798045
sI10644
F0.041301011810429444
sI10646
F0.6355000000000001
sI10655
F1.0
sI10658
F0.0
sI10662
F0.0
sI10665
F0.6355000000000001
sI10666
F0.45
sI10668
F0.36450000000000005
sI10670
F0.0
sI10672
F0.5950000000000001
sI10674
F1.0
sI10681
F1.0
sI10684
F0.0
sI10686
F0.0
sI10692
F0.5
sI10693
F0.5
sI10695
F0.5
sI10697
F0.5
sI10699
F0.55
sI10701
F0.44750879551760386
sI10703
F0.4877511636984828
sI10706
F0.45
sI10707
F0.4900020969334331
sI10708
F0.48082873115918534
sI10711
F0.5
sI10713
F0.5
sI10714
F0.5
sI10719
F0.5
sI10721
F0.5005
sI10724
F0.505
sI10725
F0.5
sI10726
F0.5
sI10730
F0.4569026344687023
sI10734
F0.4564499004249096
sI10736
F0.31254083738829347
sI10737
F0.5
sI10738
F0.5
sI10740
F0.5
sI10742
F0.55
sI10744
F0.5
sI10747
F0.5
sI10749
F0.5
sI10750
F0.5
sI10755
F0.5
sI10756
F0.5
sI10758
F0.5
sI10760
F0.0
sI10762
F0.55
sI10768
F0.5
sI10773
F0.5
sI10775
F0.5950000000000001
sI10778
F1.0
sI10779
F0.55
sI10780
F1.0
sI10784
F0.3926313611540419
sI10788
F0.45783383442827713
sI10790
F0.312570679489354
sI10791
F0.5
sI10792
F1.0
sI10794
F1.0
sI10802
F0.10037103337081882
sI10806
F0.10422651869510309
sI10808
F0.1
sI10817
F0.09999999999999995
sI10818
F0.517195
sI10820
F0.9556853094017375
sI10823
F1.0
sI10824
F0.7342795
sI10825
F1.0
sI10827
F0.5
sI10828
F1.0
sI10830
F1.0
sI10836
F0.5
sI10838
F0.0
sI10842
F0.55
sI10843
F1.0
sI10849
F1.0
sI10855
F0.5
sI10857
F0.5
sI10858
F0.5
sI10863
F0.10214111564785422
sI10864
F0.1002427937347101
sI10866
F0.08954424173911124
sI10868
F0.4599999677075398
sI10870
F0.20167259455836065
sI10876
F0.0
sI10881
F0.46006472145300736
sI10882
F0.08338590849833284
sI10884
F0.09726407557089425
sI10886
F0.17127430843176045
sI10888
F0.5
sI10890
F0.1003106020153895
sI10892
F0.10001041312020426
sI10895
F0.09999999999999995
sI10896
F0.1
sI10897
F0.09999999999999995
sI10900
F0.0
sI10902
F0.0
sI10912
F0.0
sI10918
F0.0
sI10920
F0.0
sI10935
F0.5444144394330952
sI10936
F0.5104797349376996
sI10938
F0.5
sI10940
F0.4988899872992691
sI10942
F0.55
sI10944
F0.5924556434201
sI10946
F0.6355000000000001
sI10949
F0.5
sI10950
F0.5950000000000001
sI10951
F0.5
sI10954
F0.55
sI10956
F0.5
sI10957
F0.4751140979274813
sI10962
F0.5
sI10964
F0.5
sI10967
F0.5
sI10968
F0.5
sI10969
F0.5
sI10973
F0.5
sI10977
F0.5
sI10979
F0.5
sI10980
F0.5
sI10981
F0.5
sI10983
F0.5
sI10985
F0.501355
sI10987
F0.5
sI10990
F0.55
sI10992
F0.50095
sI10993
F0.5095000000000001
sI10998
F0.6355000000000001
sI10999
F0.5
sI11001
F0.5
sI11003
F0.5
sI11005
F0.5
sI11011
F0.55
sI11016
F0.5086
sI11018
F0.5005
sI11021
F0.42531385359460466
sI11022
F0.55
sI11023
F1.0
sI11027
F0.5
sI11031
F0.5
sI11033
F0.5
sI11034
F0.55
sI11035
F1.0
sI11037
F0.47983321124588685
sI11039
F0.4347070754938119
sI11045
F0.505
sI11049
F0.5
sI11051
F0.55
sI11060
F0.5
sI11061
F0.5
sI11063
F0.5
sI11066
F0.3717390357776537
sI11067
F0.55
sI11068
F1.0
sI11070
F0.55
sI11071
F1.0
sI11073
F0.49882978192716176
sI11075
F0.4927978192716174
sI11079
F0.5
sI11081
F0.5
sI11084
F0.45
sI11085
F0.55
sI11086
F1.0
sI11091
F0.55
sI11092
F1.0
sI11098
F0.48681535202976395
sI11100
F0.5552033530261697
sI11101
F0.45382415231097256
sI11106
F0.8587852317595001
sI11107
F0.45
sI11109
F0.6165850609426601
sI11111
F0.82566077995
sI11113
F0.0
sI11119
F0.36194465563990663
sI11124
F0.17641852511598446
sI11125
F0.14503232224085877
sI11127
F0.17810319078979375
sI11129
F0.47099012729510015
sI11131
F0.0
sI11133
F0.1412147682405
sI11135
F0.55
sI11138
F0.3951487408631525
sI11139
F0.0
sI11143
F0.55
sI11145
F0.18025846464837733
sI11146
F0.07138667626542274
sI11155
F0.5950000000000001
sI11161
F0.55
sI11163
F0.704755
sI11164
F1.0
sI11178
F0.5
sI11180
F0.55
sI11183
F0.5
sI11184
F0.5
sI11185
F0.5
sI11189
F1.0
sI11193
F1.0
sI11196
F0.5
sI11197
F0.5
sI11199
F0.5
sI11201
F0.5
sI11203
F0.5
sI11207
F0.5
sI11211
F0.5
sI11213
F0.5
sI11222
F1.0
sI11223
F0.5
sI11225
F0.5
sI11228
F0.5
sI11229
F0.5
sI11230
F0.5
sI11232
F0.5
sI11233
F0.5
sI11235
F0.5
sI11237
F0.5
sI11239
F0.5
sI11241
F1.0
sI11246
F1.0
sI11248
F1.0
sI11251
F0.5
sI11253
F0.5
sI11254
F0.505
sI11261
F0.5
sI11265
F0.5
sI11267
F0.5
sI11276
F1.0
sI11277
F0.5
sI11279
F0.5
sI11282
F0.3608717694659538
sI11283
F0.5
sI11284
F1.0
sI11294
F1.0
sI11306
F1.0
sI11310
F1.0
sI11313
F0.5
sI11315
F0.5
sI11318
F0.29524500000000004
sI11319
F0.5
sI11320
F1.0
sI11324
F1.0
sI11328
F1.0
sI11331
F0.5
sI11332
F1.0
sI11334
F0.30431566818494105
sI11336
F0.14143520354064967
sI11340
F0.7342795
sI11341
F0.12855836504232449
sI11343
F0.499981005
sI11345
F0.55
sI11347
F0.0
sI11349
F1.0
sI11354
F1.0
sI11359
F0.5
sI11361
F0.3849641618664338
sI11362
F0.09108650198784057
sI11367
F0.12709329141645
sI11369
F0.5950000000000001
sI11372
F0.39992850411352593
sI11373
F0.0
sI11378
F1.0
sI11385
F0.5
sI11386
F0.5
sI11388
F0.0675425858836496
sI11390
F0.2514811617978541
sI11392
F0.0
sI11395
F0.6355000000000001
sI11397
F0.7847663949999999
sI11398
F0.5
sI11404
F1.0
sI11406
F1.0
sI11416
F0.4239991678161498
sI11422
F0.5950000000000001
sI11424
F0.5
sI11425
F0.5
sI11430
F0.6100177538300756
sI11431
F0.6794806501658784
sI11433
F0.505
sI11435
F0.5
sI11437
F0.7608515499999999
sI11443
F0.5
sI11448
F0.5
sI11449
F0.5
sI11451
F0.4998883740713081
sI11453
F0.5
sI11455
F0.5
sI11457
F0.5
sI11459
F0.5
sI11462
F0.5
sI11463
F0.5
sI11464
F0.5
sI11467
F0.55
sI11469
F0.49888374071308095
sI11470
F0.5
sI11479
F0.5
sI11485
F0.7342795
sI11487
F0.5
sI11488
F1.0
sI11502
F0.55
sI11503
F1.0
sI11505
F0.5
sI11507
F0.4763481232307206
sI11511
F0.5
sI11513
F0.5
sI11516
F0.41672592554861587
sI11517
F0.5
sI11518
F1.0
sI11523
F0.55
sI11524
F1.0
sI11529
F0.5
sI11531
F0.5
sI11534
F0.29020005299868545
sI11535
F0.5
sI11536
F1.0
sI11540
F0.5
sI11544
F0.5
sI11546
F0.5
sI11547
F0.55
sI11548
F1.0
sI11550
F0.383349773972951
sI11552
F0.17047185916319782
sI11559
F0.5
sI11560
F1.0
sI11565
F0.5
sI11566
F1.0
sI11568
F0.5
sI11570
F0.55
sI11587
F0.55
sI11593
F0.7608515499999999
sI11595
F0.704755
sI11596
F1.0
sI11611
F0.704755
sI11613
F0.5702782490690912
sI11614
F0.6568922360646099
sI11619
F0.10089629673043125
sI11620
F0.08348528416916054
sI11622
F0.10017413724959803
sI11624
F0.10000358792694487
sI11626
F0.0
sI11632
F0.7847663949999999
sI11664
F0.5
sI11666
F0.5
sI11669
F0.50005
sI11670
F0.5
sI11671
F0.5
sI11675
F0.5
sI11679
F0.5
sI11681
F0.5
sI11682
F0.5577023404652349
sI11683
F0.6175994589061
sI11685
F0.4997001943360024
sI11687
F0.4955482423948472
sI11689
F0.704755
sI11693
F0.46235871776601867
sI11697
F0.5
sI11699
F0.5
sI11708
F0.5
sI11709
F0.50455
sI11711
F0.495
sI11714
F0.49579410886790537
sI11715
F0.55
sI11716
F1.0
sI11718
F0.5
sI11719
F0.5
sI11721
F0.5
sI11723
F0.501805
sI11725
F0.5
sI11727
F0.5
sI11729
F0.5
sI11732
F0.51355
sI11733
F0.5
sI11734
F0.5
sI11737
F0.67195
sI11739
F0.5018050000000001
sI11740
F0.42465010970041717
sI11747
F0.5
sI11751
F0.5
sI11753
F0.5
sI11762
F1.0
sI11763
F0.48718705500000004
sI11765
F0.4402431
sI11768
F0.2722035706582711
sI11769
F0.55
sI11770
F1.0
sI11780
F0.5
sI11792
F0.32805000000000006
sI11796
F0.5
sI11798
F0.0
sI11799
F0.5
sI11801
F0.5
sI11804
F0.47297819271617403
sI11805
F0.5
sI11806
F1.0
sI11810
F1.0
sI11814
F1.0
sI11817
F0.5
sI11818
F1.0
sI11820
F0.41195122050466076
sI11822
F0.14487291772825517
sI11826
F0.1669700509641363
sI11827
F0.0871864445657562
sI11829
F0.18933790011975296
sI11831
F0.3312716653910879
sI11833
F0.0
sI11835
F0.0443146905982625
sI11837
F0.6355000000000001
sI11840
F0.250890089459065
sI11841
F0.0
sI11845
F0.67195
sI11847
F0.19832995203030346
sI11848
F0.1119066916529364
sI11853
F0.11798332729528464
sI11855
F0.10002007682372642
sI11858
F0.10003414199433673
sI11859
F0.0
sI11864
F0.06863408445867496
sI11870
F0.0
sI11871
F0.704755
sI11872
F1.0
sI11874
F0.17169243306466758
sI11876
F0.10000004007055355
sI11881
F0.486
sI11883
F0.20646968006205615
sI11884
F0.05786175039171012
sI11889
F0.5
sI11890
F0.405
sI11892
F0.05800556139241919
sI11894
F0.67195
sI11896
F0.0
sI11902
F0.10000181494380549
sI11909
F0.5
sI11913
F0.5
sI11915
F0.5
sI11924
F1.0
sI11925
F0.470731493156649
sI11927
F0.5
sI11930
F0.46249141429670315
sI11931
F0.5
sI11932
F0.45
sI11942
F0.5
sI11954
F0.45
sI11958
F0.5
sI11960
F0.0
sI11961
F0.5
sI11963
F0.5
sI11966
F0.5
sI11967
F0.5
sI11968
F0.5
sI11972
F1.0
sI11976
F1.0
sI11979
F0.5
sI11980
F0.5
sI11982
F0.5
sI11984
F0.4599753496529504
sI11986
F0.5
sI11996
F0.5
sI12008
F0.32805000000000006
sI12012
F0.5
sI12014
F0.0
sI12044
F0.5
sI12048
F0.5
sI12050
F0.5
sI12059
F1.0
sI12060
F0.5004977814687656
sI12062
F0.45997781468765536
sI12065
F0.09997302783944095
sI12066
F0.5950000000000001
sI12067
F1.0
sI12069
F0.08184033009826251
sI12071
F0.67195
sI12074
F0.20043875069599573
sI12075
F0.0
sI12080
F1.0
sI12087
F0.10192678529674831
sI12088
F0.09265100944259205
sI12090
F0.10064878018775361
sI12092
F0.10000873295604708
sI12094
F0.0
sI12098
F0.09502725547280906
sI12104
F0.0
sI12114
F0.0776202718840695
sI12116
F0.3610075700470736
sI12119
F0.09999999999999831
sI12120
F0.0
sI12123
F0.67195
sI12124
F0.45
sI12126
F0.22443020206765352
sI12128
F0.9601167784615637
sI12130
F0.0
sI12132
F1.0
sI12137
F1.0
sI12142
F0.10002138451642784
sI12144
F0.1
sI12145
F0.09999999999999995
sI12150
F0.5
sI12151
F0.5
sI12153
F0.5
sI12155
F0.5
sI12157
F0.5
sI12159
F0.5
sI12161
F0.7608515499999999
sI12164
F0.5
sI12165
F0.704755
sI12166
F0.45
sI12169
F0.704755
sI12171
F0.50095
sI12172
F0.5095000000000001
sI12177
F0.5
sI12179
F0.5
sI12182
F0.5
sI12183
F0.5
sI12184
F1.0
sI12188
F0.5
sI12192
F0.5
sI12194
F0.5
sI12195
F0.5
sI12196
F1.0
sI12198
F0.4888374071308093
sI12200
F0.3883740713080931
sI12205
F0.5
sI12207
F0.5
sI12208
F0.5
sI12213
F0.5
sI12214
F0.5
sI12216
F0.5
sI12218
F0.5
sI12220
F0.5
sI12226
F0.6355000000000001
sI12231
F0.5
sI12233
F0.5
sI12236
F0.4322479322566174
sI12237
F0.5
sI12238
F1.0
sI12242
F1.0
sI12246
F1.0
sI12249
F0.5
sI12250
F1.0
sI12252
F0.41059432415093666
sI12254
F0.21235466096435232
sI12260
F0.5
sI12264
F0.5
sI12266
F0.5
sI12275
F1.0
sI12276
F0.5
sI12278
F0.5
sI12281
F0.09990449950492032
sI12282
F0.5
sI12283
F1.0
sI12285
F0.5
sI12286
F1.0
sI12288
F0.5
sI12290
F0.5950000000000001
sI12294
F1.0
sI12299
F1.0
sI12301
F1.0
sI12306
F0.5950000000000001
sI12307
F1.0
sI12313
F0.55
sI12315
F0.22690516420389373
sI12316
F0.08338590849833284
sI12321
F0.495
sI12322
F0.45
sI12324
F0.0827346767973558
sI12326
F0.14863063784046254
sI12328
F0.0
sI12334
F0.82566077995
sI12339
F0.6355000000000001
sI12340
F1.0
sI12342
F0.19199532448830656
sI12344
F0.10000000005769745
sI12348
F0.0675425858836496
sI12350
F0.10000008960429406
sI12353
F0.09999999999999995
sI12354
F0.0
sI12360
F0.9676945905538666
sI12361
F1.0
sI12370
F0.0
sI12376
F0.0
sI12378
F0.0
sI12394
F0.55
sI12396
F0.4999545
sI12397
F0.5
sI12402
F0.6355000000000001
sI12403
F0.5
sI12405
F0.5
sI12407
F0.5
sI12409
F0.55
sI12415
F0.5
sI12420
F0.5
sI12421
F0.44993126821616003
sI12423
F0.499545
sI12425
F0.5
sI12427
F0.5950000000000001
sI12429
F0.499951
sI12431
F0.5
sI12434
F0.5
sI12435
F0.5
sI12436
F0.5
sI12439
F0.55
sI12441
F0.495
sI12442
F0.43344000000000005
sI12451
F0.55
sI12457
F0.55
sI12459
F0.5
sI12460
F1.0
sI12474
F0.9166140915016672
sI12475
F1.0
sI12477
F0.2092055047008107
sI12479
F0.12871903737657056
sI12483
F0.5439521395
sI12485
F0.5950000000000001
sI12488
F0.012491953071373813
sI12489
F0.5950000000000001
sI12490
F1.0
sI12495
F0.8970544339526756
sI12496
F1.0
sI12501
F0.54442852317595
sI12503
F0.9452905054342439
sI12506
F0.11373750611104463
sI12507
F0.55
sI12508
F1.0
sI12512
F0.5
sI12516
F0.5
sI12518
F0.5
sI12519
F0.55
sI12520
F1.0
sI12522
F0.53587852317595
sI12524
F0.9556853094017375
sI12531
F0.8587852317595001
sI12532
F1.0
sI12537
F0.5950000000000001
sI12538
F1.0
sI12540
F0.45
sI12542
F0.0
sI12559
F0.6355000000000001
sI12565
F0.6355000000000001
sI12567
F0.704755
sI12568
F1.0
sI12583
F0.349700484394553
sI12585
F0.54503156894383
sI12586
F0.259783605
sI12591
F0.6355000000000001
sI12592
F0.2657205
sI12594
F0.6545439896043701
sI12596
F0.87290670858355
sI12598
F0.0
sI12604
F0.0
sI12636
F0.5
sI12637
F0.5
sI12639
F0.5
sI12641
F0.5
sI12643
F0.5
sI12645
F1.0
sI12650
F1.0
sI12652
F1.0
sI12655
F0.5
sI12657
F0.5
sI12658
F0.45
sI12663
F0.5
sI12665
F0.5
sI12668
F0.5
sI12669
F0.5
sI12670
F0.5
sI12674
F1.0
sI12678
F1.0
sI12681
F0.5
sI12682
F0.5
sI12684
F0.45
sI12686
F0.5
sI12688
F0.5
sI12691
F0.5
sI12693
F0.5
sI12694
F0.5
sI12700
F1.0
sI12702
F1.0
sI12712
F0.55
sI12717
F0.5
sI12719
F0.5
sI12722
F0.06469829963840584
sI12723
F0.5
sI12724
F1.0
sI12728
F1.0
sI12732
F1.0
sI12735
F0.55
sI12736
F1.0
sI12738
F0.517195
sI12740
F0.7608515499999999
sI12746
F1.0
sI12750
F1.0
sI12761
F1.0
sI12762
F1.0
sI12767
F1.0
sI12769
F1.0
sI12771
F0.55
sI12772
F1.0
sI12774
F0.46842795
sI12776
F0.0
sI12780
F1.0
sI12787
F1.0
sI12792
F0.704755
sI12793
F1.0
sI12799
F0.5
sI12801
F0.55
sI12802
F0.5
sI12808
F1.0
sI12810
F1.0
sI12820
F0.0
sI12825
F0.5
sI12826
F0.2657205
sI12828
F0.5
sI12830
F0.704755
sI12832
F0.0
sI12834
F1.0
sI12839
F1.0
sI12844
F0.0
sI12846
F0.0
sI12856
F0.5
sI12865
F1.0
sI12883
F0.5
sI12889
F0.7608515499999999
sI12891
F0.5
sI12892
F1.0
sI12907
F0.5950000000000001
sI12909
F0.5
sI12910
F0.505
sI12915
F0.49951
sI12916
F0.505
sI12918
F0.4951
sI12920
F0.451
sI12922
F0.6355000000000001
sI12928
F0.6355000000000001
sI12963
F0.9601167784615637
sI12964
F1.0
sI12969
F0.5950000000000001
sI12970
F1.0
sI12972
F0.48170208822857896
sI12974
F0.25481879405721064
sI12987
F0.5950000000000001
sI12988
F1.0
sI12990
F0.10005372923968543
sI12992
F0.1
sI12996
F0.10270015913734856
sI12998
F0.10023975869047748
sI13001
F0.09999999999999995
sI13002
F0.5950000000000001
sI13003
F1.0
sI13008
F0.5950000000000001
sI13009
F1.0
sI13026
F0.55
sI13027
F1.0
sI13072
F0.7608515499999999
sI13078
F0.8970544339526756
sI13080
F0.9452905054342439
sI13081
F1.0
sI13123
F0.5132138584474226
sI13125
F0.5084512142751577
sI13126
F0.5028615329977886
sI13131
F0.5102404482983405
sI13132
F0.5112793056075726
sI13134
F0.505
sI13136
F0.5
sI13138
F0.507209110512703
sI13144
F0.48876541498894266
sI13149
F0.5027201062272685
sI13150
F0.4990976521232083
sI13152
F0.4986
sI13154
F0.495
sI13156
F0.67195
sI13158
F0.49922865
sI13160
F0.49942000000000003
sI13163
F0.5
sI13164
F0.5
sI13165
F0.4987353065518498
sI13168
F0.704755
sI13170
F0.5
sI13171
F0.49905
sI13180
F0.55
sI13186
F0.5950000000000001
sI13188
F0.55
sI13189
F1.0
sI13203
F0.22233503784426767
sI13204
F0.2065442236943589
sI13206
F0.20731233470997468
sI13208
F0.7342795
sI13210
F0.50095
sI13212
F0.20128329089874045
sI13214
F0.67195
sI13217
F0.5135500000000001
sI13218
F0.7847663949999999
sI13219
F0.5115386410667101
sI13222
F0.49719392449482214
sI13224
F0.7847663949999999
sI13225
F0.405
sI13230
F0.18963902969924373
sI13232
F0.843094701955
sI13235
F0.5095000000000001
sI13236
F0.6355000000000001
sI13237
F0.5
sI13241
F0.5180500000000001
sI13245
F0.5
sI13247
F0.5950000000000001
sI13248
F0.8062897554999999
sI13249
F0.5
sI13251
F0.45
sI13253
F0.55
sI13255
F0.5
sI13258
F0.5316157202230452
sI13260
F0.67195
sI13261
F0.5
sI13266
F0.8587852317595001
sI13267
F0.58695525617095
sI13269
F0.5
sI13271
F0.5
sI13273
F0.704755
sI13279
F0.5
sI13288
F0.704755
sI13294
F0.7608515499999999
sI13296
F0.7342795
sI13297
F1.0
sI13312
F0.8970544339526756
sI13314
F0.50768579242405
sI13315
F0.5436240895
sI13320
F0.51155542
sI13321
F0.5429534500000002
sI13323
F0.405
sI13325
F0.0
sI13327
F0.6355000000000001
sI13333
F0.5950000000000001
sI13365
F0.5013435278483714
sI13366
F0.497935
sI13368
F0.4995
sI13370
F0.49735
sI13372
F0.5
sI13374
F0.46460184002263255
sI13376
F0.5
sI13379
F0.5
sI13380
F0.5
sI13381
F0.46174517368141393
sI13384
F0.5
sI13386
F0.5
sI13387
F0.4617268332104739
sI13392
F0.49837613910918355
sI13394
F0.55
sI13397
F0.45
sI13398
F0.55
sI13399
F0.5
sI13403
F0.45
sI13407
F0.5
sI13409
F0.5
sI13410
F0.55
sI13411
F0.505
sI13413
F0.5
sI13415
F0.5
sI13417
F0.5
sI13420
F0.5
sI13422
F0.500455
sI13423
F0.5
sI13428
F0.5022102801623959
sI13429
F0.5082314499999999
sI13431
F0.4995
sI13433
F0.495
sI13435
F0.49644999999999995
sI13441
F0.5
sI13446
F0.19414159917056856
sI13448
F0.704755
sI13451
F0.5095000000000001
sI13452
F0.8970544339526756
sI13453
F0.5
sI13457
F0.5
sI13461
F0.505
sI13463
F0.5
sI13464
F0.7847663949999999
sI13465
F0.5112436399482216
sI13467
F0.5
sI13469
F0.5
sI13471
F0.55
sI13475
F1.0
sI13479
F1.0
sI13490
F1.0
sI13491
F1.0
sI13496
F1.0
sI13498
F1.0
sI13500
F0.14969416750692835
sI13501
F0.13909454116456252
sI13503
F0.13816697474879056
sI13505
F0.704755
sI13507
F0.42066017567504527
sI13509
F0.13722918601207817
sI13511
F0.5950000000000001
sI13514
F0.5
sI13515
F0.907348990557408
sI13516
F0.357804916352683
sI13519
F0.3909869682703528
sI13521
F0.6355000000000001
sI13522
F0.3173443260269166
sI13528
F0.5004702967589999
sI13530
F0.1497447109128322
sI13531
F0.1692926752536196
sI13536
F0.14601840022632526
sI13537
F0.16972624542367293
sI13539
F0.08012482173387815
sI13541
F0.0
sI13543
F0.11122486161431139
sI13549
F0.15902448544395079
sI13554
F0.4781562985469315
sI13555
F0.44078519336151667
sI13557
F0.113619642038632
sI13559
F0.0
sI13561
F0.5
sI13563
F0.11230546539010461
sI13565
F0.0
sI13569
F0.495
sI13570
F0.06078832729528464
sI13573
F0.6355000000000001
sI13575
F0.5
sI13576
F0.09851001017689041
sI13585
F0.704755
sI13591
F0.6355000000000001
sI13593
F0.55
sI13594
F1.0
sI13612
F0.55
sI13618
F0.55
sI13620
F0.55
sI13621
F1.0
sI13636
F0.5950000000000001
sI13638
F0.5
sI13639
F0.45
sI13644
F0.5
sI13645
F0.5
sI13647
F0.5
sI13649
F0.5
sI13651
F0.55
sI13657
F0.0
sI13690
F0.508898215
sI13692
F0.8062897554999999
sI13693
F0.45
sI13698
F0.7608515499999999
sI13699
F0.5429534500000002
sI13701
F0.5
sI13703
F0.5950000000000001
sI13705
F0.6355000000000001
sI13711
F0.0
sI13716
F0.13883587980461998
sI13717
F0.114383962274805
sI13719
F0.11472529319849954
sI13721
F0.5950000000000001
sI13723
F0.5
sI13725
F0.1230052878882532
sI13727
F0.7342795
sI13730
F0.5
sI13731
F0.6355000000000001
sI13732
F0.49519
sI13735
F0.0
sI13737
F0.0
sI13747
F0.5
sI13753
F0.6355000000000001
sI13755
F0.5
sI13756
F1.0
sI13801
F0.5950000000000001
sI13807
F0.5950000000000001
sI13809
F0.5
sI13810
F1.0
sI13851
F0.5076633453126594
sI13852
F0.5
sI13854
F0.5
sI13856
F0.5005
sI13858
F0.5
sI13860
F0.51507395504425
sI13862
F0.55
sI13865
F0.5
sI13866
F0.55
sI13867
F0.5281705000000001
sI13870
F0.5
sI13872
F0.5
sI13873
F0.45
sI13878
F0.498645
sI13880
F0.48645
sI13883
F0.45
sI13884
F0.5
sI13885
F1.0
sI13889
F0.5
sI13893
F0.5
sI13895
F0.5
sI13896
F0.5
sI13897
F1.0
sI13899
F0.5
sI13901
F0.5
sI13906
F0.5
sI13908
F0.5
sI13909
F0.5
sI13914
F0.55
sI13915
F0.5
sI13917
F0.5
sI13919
F0.5
sI13921
F0.55
sI13927
F0.5
sI13932
F0.18176653867242404
sI13934
F0.6355000000000001
sI13937
F0.505
sI13938
F0.55
sI13939
F0.505
sI13943
F1.0
sI13947
F1.0
sI13950
F0.15486436941054998
sI13951
F0.13903106604732451
sI13953
F0.1412147682405
sI13955
F0.55
sI13957
F0.5
sI13961
F0.5
sI13965
F0.5
sI13967
F0.5
sI13976
F1.0
sI13977
F0.12608874424673966
sI13979
F0.55
sI13982
F0.5
sI13983
F0.5
sI13984
F1.0
sI13986
F0.5950000000000001
sI13987
F0.5
sI13989
F0.5
sI13991
F0.5
sI13993
F0.55
sI13995
F1.0
sI14000
F1.0
sI14002
F1.0
sI14005
F0.495
sI14007
F0.5
sI14008
F0.45
sI14014
F0.704755
sI14016
F0.5134154634999999
sI14017
F0.545610655
sI14022
F0.507181015
sI14023
F0.53562295
sI14025
F0.405
sI14027
F0.0
sI14029
F0.5950000000000001
sI14035
F0.6355000000000001
sI14040
F0.704755
sI14041
F1.0
sI14043
F0.45
sI14045
F0.0
sI14049
F0.5
sI14051
F0.0
sI14055
F0.5
sI14056
F1.0
sI14061
F0.5
sI14062
F1.0
sI14071
F0.5950000000000001
sI14077
F0.5950000000000001
sI14079
F0.55
sI14080
F1.0
sI14094
F0.499897
sI14096
F0.5
sI14099
F0.5
sI14100
F0.5
sI14101
F0.5
sI14105
F0.5
sI14109
F0.505
sI14111
F0.5
sI14112
F0.5
sI14113
F0.5
sI14115
F0.5
sI14117
F0.5
sI14119
F0.55
sI14123
F0.45
sI14127
F0.5
sI14129
F0.5
sI14138
F0.5
sI14139
F0.5
sI14141
F0.5
sI14144
F0.5
sI14145
F0.5
sI14146
F1.0
sI14148
F0.5
sI14149
F0.5
sI14151
F0.5
sI14153
F0.5
sI14155
F0.5
sI14157
F0.4950059002897324
sI14159
F0.5
sI14162
F0.5
sI14163
F0.5
sI14164
F0.46731081922036144
sI14167
F0.5
sI14169
F0.5
sI14170
F0.5
sI14177
F0.5
sI14181
F0.5
sI14183
F0.5
sI14192
F1.0
sI14193
F0.13954362807113163
sI14195
F0.6355000000000001
sI14198
F0.51355
sI14199
F0.5950000000000001
sI14200
F0.5
sI14210
F1.0
sI14222
F1.0
sI14226
F1.0
sI14229
F0.1386558668731505
sI14231
F0.67195
sI14234
F0.5
sI14235
F0.55
sI14236
F0.34420605316914044
sI14240
F1.0
sI14244
F1.0
sI14247
F0.11594650004281154
sI14248
F0.10995291455407909
sI14250
F0.10965196013376038
sI14252
F0.5950000000000001
sI14254
F0.10095914274042979
sI14256
F0.4330802867757288
sI14257
F0.3825965085378729
sI14259
F0.10445905452909442
sI14261
F0.0
sI14263
F0.67195
sI14265
F0.114383962274805
sI14267
F0.0
sI14271
F0.5
sI14272
F0.08331708941239815
sI14275
F0.55
sI14277
F0.392203458
sI14278
F0.2672828146842324
sI14283
F0.36450000000000005
sI14285
F0.0
sI14289
F0.5
sI14290
F1.0
sI14298
F0.45
sI14300
F0.0
sI14301
F0.55
sI14302
F1.0
sI14304
F0.215233605
sI14306
F0.0
sI14311
F0.296971565763098
sI14313
F0.10206274567319486
sI14314
F0.10028487083896553
sI14319
F0.4077870657833227
sI14320
F0.24498157820769526
sI14322
F0.09499368226909466
sI14324
F0.0
sI14326
F0.11209965507603357
sI14332
F0.10000000000314677
sI14338
F0.5
sI14340
F0.5
sI14341
F0.5
sI14346
F0.55
sI14347
F0.5
sI14349
F0.5
sI14351
F0.55
sI14353
F0.5950000000000001
sI14359
F0.0
sI14364
F0.5
sI14365
F1.0
sI14367
F0.5
sI14369
F0.5
sI14373
F0.5
sI14375
F0.5
sI14378
F0.5
sI14379
F0.5
sI14380
F1.0
sI14385
F0.0
sI14395
F0.5
sI14401
F0.5
sI14403
F0.5
sI14404
F1.0
sI14418
F0.67195
sI14419
F0.405
sI14421
F0.5
sI14423
F0.55
sI14425
F0.5
sI14427
F1.0
sI14432
F1.0
sI14434
F1.0
sI14437
F0.0
sI14439
F0.0
sI14445
F0.1014058395746915
sI14447
F0.55
sI14450
F0.45
sI14451
F0.5950000000000001
sI14452
F1.0
sI14456
F1.0
sI14460
F1.0
sI14463
F0.0
sI14468
F0.0
sI14473
F0.5
sI14475
F0.5
sI14476
F0.5
sI14482
F1.0
sI14484
F1.0
sI14494
F0.0
sI14503
F0.6355000000000001
sI14509
F0.5950000000000001
sI14511
F0.5
sI14512
F1.0
sI14529
F0.55
sI14530
F1.0
sI14535
F0.7847663949999999
sI14536
F1.0
sI14538
F0.45
sI14540
F0.0
sI14584
F0.67195
sI14590
F0.55
sI14592
F0.55
sI14593
F1.0
sI14608
F0.4954765212320829
sI14610
F0.4914
sI14611
F0.4995
sI14616
F0.49495500000000003
sI14617
F0.45
sI14619
F0.45
sI14621
F0.5
sI14623
F0.45759104608434237
sI14629
F0.4905
sI14662
F0.1896213227323364
sI14664
F0.87290670858355
sI14665
F0.09727684843343626
sI14670
F0.15880698608718152
sI14671
F0.054709494565756175
sI14673
F0.0598483151047175
sI14675
F0.55
sI14677
F0.44914925727900007
sI14683
F0.7847663949999999
sI14688
F0.9392116727047154
sI14689
F0.0964774153935068
sI14691
F0.45
sI14693
F0.55
sI14695
F0.82566077995
sI14697
F0.04899039466054446
sI14699
F0.6355000000000001
sI14702
F0.5
sI14703
F0.55
sI14704
F0.32805000000000006
sI14707
F0.8062897554999999
sI14709
F0.5
sI14710
F0.45
sI14719
F0.55
sI14725
F0.87290670858355
sI14727
F0.55
sI14728
F1.0
sI14773
F0.67195
sI14779
F0.9452905054342439
sI14781
F0.5
sI14782
F1.0
sI14824
F0.5
sI14826
F0.5
sI14827
F0.5
sI14832
F0.4856424381215984
sI14833
F0.405
sI14835
F0.4545
sI14837
F0.5
sI14839
F0.5
sI14845
F0.5
sI14850
F0.55
sI14851
F0.45
sI14853
F0.5
sI14855
F0.5
sI14857
F0.5950000000000001
sI14859
F0.405
sI14861
F0.5
sI14864
F0.5
sI14865
F0.5
sI14866
F0.36450000000000005
sI14869
F0.55
sI14871
F0.5
sI14872
F0.45
sI14881
F0.5
sI14887
F0.55
sI14889
F0.55
sI14890
F1.0
sI14904
F0.885616037725195
sI14905
F0.0835728360717963
sI14907
F0.45
sI14909
F0.55
sI14911
F0.55
sI14913
F0.0656805853928649
sI14915
F0.5
sI14918
F0.45
sI14919
F0.55
sI14920
F0.32805000000000006
sI14923
F0.5950000000000001
sI14925
F0.5
sI14926
F0.5
sI14931
F1.0
sI14936
F1.0
sI14938
F1.0
sI14942
F1.0
sI14946
F1.0
sI14950
F1.0
sI14952
F1.0
sI14959
F0.10168907963833407
sI14961
F0.704755
sI14962
F0.054709494565756175
sI14967
F0.06903748112462028
sI14968
F0.039320974632360846
sI14970
F0.03988322153843625
sI14972
F0.0
sI14974
F0.1991448256836025
sI14980
F0.6355000000000001
sI14989
F0.7342795
sI14995
F0.67195
sI14997
F0.5
sI14998
F1.0
sI15013
F0.32971610573907967
sI15015
F0.495
sI15016
F0.23914845
sI15021
F0.3353635687451954
sI15022
F0.1937102445
sI15024
F0.17433922005
sI15026
F0.0
sI15028
F0.42399899484751025
sI15034
F0.0
sI15097
F0.55
sI15103
F0.6355000000000001
sI15105
F0.5
sI15106
F1.0
sI15151
F0.55
sI15157
F0.5950000000000001
sI15159
F0.55
sI15160
F1.0
sI15175
F0.04500061910191785
sI15177
F0.67195
sI15178
F0.029074868501520024
sI15183
F0.11461032289016568
sI15184
F0.015343241518649247
sI15186
F0.052740864028631956
sI15188
F0.67195
sI15190
F0.1877805397641463
sI15196
F0.0
sI15309
F0.5074759914301478
sI15310
F0.499545
sI15312
F0.4972959209815924
sI15314
F0.6355000000000001
sI15316
F0.5002641542796349
sI15318
F0.5000455
sI15320
F0.5
sI15323
F0.5
sI15324
F0.5006967348940189
sI15325
F0.49983240535974655
sI15328
F0.5
sI15330
F0.55
sI15331
F0.45
sI15336
F0.4995
sI15338
F0.5
sI15341
F0.45
sI15342
F0.5
sI15343
F0.5
sI15347
F0.5
sI15351
F0.4995
sI15353
F0.5
sI15354
F0.495
sI15355
F0.5
sI15357
F0.5
sI15359
F0.5
sI15361
F0.5
sI15364
F0.5005
sI15366
F0.55
sI15367
F0.5
sI15372
F0.5
sI15373
F0.505
sI15375
F0.5
sI15377
F0.5
sI15379
F0.49832405359746534
sI15385
F0.5
sI15390
F0.20345130528906086
sI15392
F0.7847663949999999
sI15395
F1.0
sI15396
F0.1778857137961737
sI15397
F0.17657783414458558
sI15401
F0.5
sI15405
F0.13546521824421204
sI15407
F0.67195
sI15408
F0.9166140915016672
sI15409
F0.45
sI15411
F1.0
sI15415
F0.3416192881966875
sI15419
F0.5
sI15423
F0.1361539768720258
sI15425
F0.55
sI15434
F0.5
sI15435
F0.5
sI15437
F0.5
sI15440
F1.0
sI15441
F0.5950000000000001
sI15442
F0.23914845
sI15444
F0.87290670858355
sI15445
F0.5
sI15447
F1.0
sI15451
F0.47050426185674066
sI15453
F0.5
sI15455
F0.5
sI15458
F1.0
sI15459
F0.67195
sI15460
F0.4561622730757647
sI15463
F0.5
sI15466
F1.0
sI15472
F0.5
sI15474
F0.4694581491621874
sI15475
F0.4373564539280341
sI15480
F0.4896567668927582
sI15481
F0.47667237319290323
sI15483
F0.405
sI15485
F0.0
sI15487
F0.34196641856621984
sI15493
F0.3279727135385797
sI15498
F0.500879780958701
sI15499
F0.5095000000000001
sI15501
F0.405
sI15503
F0.0
sI15505
F0.55
sI15507
F0.4442197884300116
sI15509
F0.0
sI15513
F0.11665642480136036
sI15514
F0.10625138703040655
sI15517
F0.55
sI15519
F0.5
sI15520
F0.1937102445
sI15529
F0.67195
sI15535
F0.55
sI15537
F0.5950000000000001
sI15538
F1.0
sI15552
F0.5
sI15554
F0.5
sI15557
F0.5
sI15558
F0.5
sI15559
F0.5
sI15563
F0.5
sI15567
F0.5
sI15569
F0.5
sI15570
F0.5
sI15571
F0.5
sI15573
F0.5
sI15575
F0.5
sI15577
F0.5
sI15581
F0.5
sI15585
F0.5
sI15587
F0.5
sI15596
F0.5
sI15597
F0.4995
sI15599
F0.5
sI15602
F0.5
sI15603
F0.5
sI15604
F0.5
sI15606
F0.5
sI15607
F0.5
sI15609
F0.505
sI15611
F0.55
sI15613
F0.5
sI15615
F0.4244337637479104
sI15617
F0.5
sI15620
F0.45
sI15621
F0.5
sI15622
F0.45999999999999996
sI15625
F0.5
sI15627
F0.5
sI15628
F0.5
sI15635
F0.5
sI15639
F0.13615055239258364
sI15641
F0.67195
sI15650
F0.51355
sI15651
F0.505
sI15653
F0.5
sI15656
F1.0
sI15657
F0.55
sI15658
F0.24055796283700354
sI15668
F1.0
sI15680
F1.0
sI15684
F1.0
sI15687
F0.13694659458972008
sI15689
F0.6355000000000001
sI15692
F1.0
sI15693
F0.10761846223738925
sI15694
F0.10345711607685994
sI15698
F0.45
sI15702
F0.1036395616732801
sI15704
F0.67195
sI15705
F0.67195
sI15706
F0.3101771510136735
sI15708
F1.0
sI15712
F0.10327919715341609
sI15714
F0.1668607720181442
sI15715
F0.16146495171626019
sI15717
F0.09265100944259205
sI15719
F0.0
sI15721
F0.4755820579045983
sI15723
F0.07504731764849956
sI15725
F0.0
sI15729
F0.43433236243534395
sI15730
F0.1090301127640601
sI15733
F0.10155952528481065
sI15735
F0.4905
sI15736
F0.07504731764849956
sI15741
F0.12709329141645
sI15743
F0.0
sI15747
F0.4945909812500342
sI15748
F0.4060435877025335
sI15756
F0.08338590849833284
sI15758
F0.0
sI15759
F0.495
sI15760
F0.09082583684038839
sI15762
F0.405
sI15764
F0.0
sI15766
F0.7608515499999999
sI15769
F0.48211841362672336
sI15771
F0.5
sI15772
F0.42228944179682637
sI15777
F0.10219151592274442
sI15778
F0.10045394366384433
sI15780
F0.04825218270702003
sI15782
F0.0
sI15784
F0.1
sI15790
F0.27218688359365273
sI15796
F0.495
sI15798
F0.5950000000000001
sI15799
F0.45
sI15804
F0.5
sI15805
F0.5
sI15807
F0.5
sI15809
F0.5
sI15811
F0.5
sI15817
F0.0
sI15822
F0.5
sI15823
F0.5
sI15825
F0.5
sI15827
F0.5
sI15829
F0.5
sI15831
F0.5
sI15833
F0.5
sI15836
F0.5
sI15837
F0.5
sI15838
F0.5
sI15841
F0.0
sI15843
F0.0
sI15853
F0.5
sI15859
F0.55
sI15861
F0.5
sI15862
F1.0
sI15876
F0.7342795
sI15877
F0.405
sI15879
F1.0
sI15883
F0.13710985111370128
sI15885
F0.5
sI15887
F0.5
sI15890
F1.0
sI15891
F0.6355000000000001
sI15892
F0.12365693161885466
sI15895
F0.0
sI15903
F0.12020514883227452
sI15905
F0.55
sI15908
F1.0
sI15909
F0.11277195128457511
sI15910
F0.07078832729528464
sI15914
F0.5
sI15918
F0.10344764084116638
sI15920
F0.67195
sI15921
F0.0
sI15928
F0.0
sI15931
F0.5
sI15934
F1.0
sI15939
F0.5
sI15940
F0.505
sI15942
F1.0
sI15946
F0.7608515499999999
sI15961
F0.55
sI15967
F0.5950000000000001
sI15969
F0.5
sI15970
F1.0
sI15985
F0.55
sI15987
F0.495
sI15988
F0.5
sI15993
F0.5
sI15994
F0.5
sI15996
F0.45
sI15998
F0.0
sI16000
F0.8062897554999999
sI16006
F0.0
sI16038
F0.5
sI16040
F0.495
sI16043
F0.5
sI16044
F0.5003331611755792
sI16045
F0.4972626445119196
sI16049
F0.45
sI16053
F0.48863581221000496
sI16055
F0.55
sI16056
F0.495
sI16057
F0.45
sI16059
F0.5
sI16061
F0.5
sI16063
F0.5950000000000001
sI16067
F0.45
sI16071
F0.4995
sI16073
F0.495
sI16082
F0.5
sI16083
F0.45
sI16085
F0.5
sI16088
F0.5
sI16089
F0.5
sI16090
F1.0
sI16092
F0.5285913045948408
sI16093
F0.4995
sI16095
F0.49768465500000003
sI16097
F0.55
sI16099
F0.4682343857583031
sI16101
F0.497657205
sI16103
F0.5
sI16106
F0.5
sI16107
F0.5950000000000001
sI16108
F0.39797158462300475
sI16111
F0.495
sI16113
F0.55
sI16114
F0.5
sI16121
F0.5
sI16125
F0.1333848103059205
sI16127
F0.5950000000000001
sI16136
F1.0
sI16137
F0.1412147682405
sI16139
F0.5
sI16142
F1.0
sI16143
F0.09125582273277869
sI16144
F0.062256923207225784
sI16154
F0.45
sI16166
F0.5
sI16170
F0.06078832729528464
sI16172
F0.0
sI16173
F0.5687616096954999
sI16175
F0.6355000000000001
sI16178
F1.0
sI16179
F0.6355000000000001
sI16180
F0.4103640932614934
sI16184
F1.0
sI16188
F1.0
sI16191
F0.6355000000000001
sI16192
F0.45
sI16194
F1.0
sI16198
F0.2549637513480389
sI16200
F0.1497450216005732
sI16201
F0.17314992832727782
sI16203
F0.10850819010753783
sI16205
F0.0
sI16207
F0.6355000000000001
sI16209
F0.12616626374019443
sI16211
F0.0
sI16215
F0.3720480850959998
sI16216
F0.18621206783555305
sI16219
F0.7608515499999999
sI16221
F0.47385
sI16222
F0.215233605
sI16227
F0.11338192295484667
sI16229
F0.0
sI16233
F0.55
sI16234
F1.0
sI16242
F0.09002414314672856
sI16244
F0.0
sI16245
F0.6355000000000001
sI16246
F1.0
sI16248
F0.36450000000000005
sI16250
F0.0
sI16255
F0.10217998791340947
sI16257
F0.42544804500000005
sI16258
F0.09265100944259205
sI16263
F0.47657205
sI16264
F0.09265100944259205
sI16266
F0.23914845
sI16268
F0.0
sI16270
F0.11653181297774977
sI16276
F0.42311370618803473
sI16283
F0.5
sI16287
F0.4660479680797596
sI16289
F0.495
sI16298
F0.5
sI16299
F0.5
sI16301
F0.5
sI16304
F0.5
sI16305
F0.5
sI16306
F0.5
sI16316
F0.45
sI16328
F0.5
sI16332
F0.5
sI16334
F0.0
sI16335
F0.499955217031
sI16337
F0.5
sI16340
F0.5
sI16341
F0.5
sI16342
F0.42075996553437334
sI16346
F0.5
sI16350
F0.5
sI16352
F0.5
sI16353
F0.49955217031
sI16354
F0.5
sI16356
F0.4955217031
sI16358
F0.5
sI16360
F0.4599973027839441
sI16370
F0.45
sI16382
F0.5
sI16386
F0.06577811048998866
sI16388
F0.0
sI16418
F0.5
sI16422
F0.10367510838845356
sI16424
F0.6355000000000001
sI16433
F1.0
sI16434
F0.11014844445889765
sI16436
F0.6355000000000001
sI16439
F1.0
sI16440
F0.10000328845814847
sI16441
F0.0999999999984106
sI16443
F0.114383962274805
sI16445
F0.0
sI16449
F0.13090686356718664
sI16450
F0.138931475001661
sI16458
F0.010545514125450987
sI16460
F0.0
sI16461
F0.16761143531135056
sI16462
F0.10029243729315973
sI16464
F0.029074868501520024
sI16466
F0.0
sI16468
F0.9979127210410353
sI16476
F0.06983104894613337
sI16478
F0.0
sI16488
F0.05650795168995134
sI16490
F0.0
sI16494
F0.6355000000000001
sI16495
F1.0
sI16497
F0.5
sI16498
F0.10039075025942718
sI16500
F0.08145376286237431
sI16502
F0.0
sI16504
F0.1
sI16506
F0.09894746779082894
sI16508
F0.0
sI16512
F0.3915914049554428
sI16513
F0.09999999999999995
sI16516
F0.1
sI16518
F0.3585293031181016
sI16519
F0.09999999999999995
sI16524
F0.4898973809358999
sI16525
F0.45
sI16527
F0.45
sI16529
F0.5
sI16531
F0.55
sI16533
F0.51308912215
sI16535
F0.5950000000000001
sI16538
F0.5
sI16539
F0.55
sI16540
F0.5095000000000001
sI16543
F0.0
sI16545
F0.0
sI16551
F0.45
sI16553
F0.5
sI16556
F0.5
sI16557
F0.5
sI16558
F1.0
sI16562
F0.5
sI16566
F0.5
sI16568
F0.5
sI16569
F0.0
sI16574
F0.0
sI16579
F0.5
sI16581
F0.55
sI16582
F0.5
sI16587
F0.55
sI16588
F0.5
sI16590
F0.5
sI16592
F0.5
sI16594
F0.5950000000000001
sI16600
F0.0
sI16605
F0.45
sI16607
F0.5
sI16610
F1.0
sI16611
F0.6355000000000001
sI16612
F0.07504731764849956
sI16616
F1.0
sI16620
F1.0
sI16623
F0.0
sI16630
F0.0
sI16634
F0.5
sI16638
F0.10066011664349955
sI16640
F0.5950000000000001
sI16649
F1.0
sI16652
F0.0
sI16656
F0.0
sI16659
F0.5950000000000001
sI16660
F0.5
sI16662
F1.0
sI16666
F0.55
sI16668
F1.0
sI16673
F1.0
sI16675
F1.0
sI16678
F0.0
sI16687
F0.6355000000000001
sI16689
F0.5
sI16690
F0.5
sI16695
F0.47097449999999996
sI16696
F0.405
sI16698
F0.405
sI16700
F0.0
sI16702
F0.55
sI16708
F0.0
sI16713
F0.5950000000000001
sI16714
F1.0
sI16716
F0.5
sI16718
F0.0
sI16722
F0.45
sI16724
F0.0
sI16728
F0.704755
sI16729
F1.0
sI16734
F0.0
sI16744
F0.0
sI16750
F0.0
sI16752
F0.0
sI16768
F0.5
sI16770
F0.55
sI16771
F0.5
sI16776
F0.5005
sI16777
F0.505
sI16779
F0.5
sI16781
F0.5
sI16783
F0.49868317
sI16789
F0.5
sI16794
F0.5
sI16795
F0.4997652123208292
sI16797
F0.5
sI16799
F0.5
sI16801
F0.5
sI16803
F0.4995
sI16805
F0.495
sI16808
F0.45
sI16809
F0.5
sI16810
F0.3963216825790943
sI16813
F0.5
sI16815
F0.55
sI16816
F0.45
sI16825
F0.5
sI16831
F0.5
sI16833
F0.5
sI16834
F1.0
sI16848
F0.9601167784615637
sI16849
F0.2482764078235878
sI16851
F1.0
sI16855
F0.10425329266829597
sI16857
F0.12988240291264921
sI16859
F0.82566077995
sI16862
F1.0
sI16863
F0.10933212732351913
sI16864
F0.10093671527674149
sI16867
F0.7608515499999999
sI16870
F1.0
sI16875
F0.5095000000000001
sI16877
F0.5950000000000001
sI16880
F1.0
sI16881
F0.82566077995
sI16882
F0.10096650295031773
sI16886
F0.5
sI16890
F0.10064071587158091
sI16892
F0.8062897554999999
sI16893
F0.55
sI16894
F0.45
sI16896
F1.0
sI16900
F0.7342795
sI16903
F0.7342795
sI16906
F1.0
sI16911
F0.843094701955
sI16912
F0.5
sI16914
F1.0
sI16918
F0.16534420850278414
sI16933
F0.5950000000000001
sI16939
F0.6355000000000001
sI16941
F0.5
sI16942
F1.0
sI16957
F0.5
sI16959
F0.5
sI16960
F0.5
sI16965
F0.10953846494360081
sI16966
F0.10199632189629337
sI16968
F0.08338590849833284
sI16970
F0.0
sI16972
F0.1
sI16978
F0.0
sI17010
F0.5
sI17011
F0.5
sI17013
F0.5
sI17015
F0.5
sI17017
F0.5
sI17019
F0.4706524038333657
sI17021
F0.418294291455
sI17024
F0.32805000000000006
sI17025
F0.4973146478506259
sI17026
F0.4951
sI17029
F0.5
sI17031
F0.5
sI17032
F0.5
sI17037
F0.5
sI17039
F0.5
sI17042
F0.5
sI17043
F0.5
sI17044
F0.5
sI17048
F0.36450000000000005
sI17052
F0.46864647850625957
sI17054
F0.55
sI17055
F0.5
sI17056
F0.5
sI17058
F0.5
sI17060
F0.5
sI17062
F0.5
sI17065
F0.5
sI17067
F0.5
sI17068
F0.5
sI17073
F0.5
sI17074
F0.5
sI17076
F0.5
sI17078
F0.0
sI17080
F0.451
sI17086
F0.5
sI17091
F0.5
sI17093
F0.5
sI17096
F1.0
sI17097
F0.7608515499999999
sI17098
F0.10094709573247759
sI17102
F0.32805000000000006
sI17106
F0.10235660418425785
sI17108
F0.9249526823515004
sI17109
F0.55
sI17110
F0.5
sI17112
F1.0
sI17116
F0.7608515499999999
sI17120
F1.0
sI17124
F1.0
sI17135
F1.0
sI17136
F1.0
sI17141
F1.0
sI17143
F1.0
sI17145
F0.67195
sI17146
F0.10031656960925515
sI17148
F1.0
sI17152
F0.1
sI17154
F0.03988322153843625
sI17156
F0.0
sI17160
F0.10000000000000006
sI17161
F0.09999999999999995
sI17164
F0.82566077995
sI17167
F1.0
sI17173
F0.5
sI17175
F0.495
sI17176
F0.46
sI17181
F0.44307979143644716
sI17182
F0.3530709444304458
sI17184
F0.36450000000000005
sI17186
F0.0
sI17188
F0.14746011035180304
sI17194
F0.0
sI17199
F0.5
sI17200
F0.215233605
sI17202
F0.45
sI17204
F0.0
sI17206
F0.25458961960691934
sI17208
F0.07092038856329118
sI17210
F0.0
sI17214
F0.12448454093161215
sI17215
F0.09999999999999995
sI17218
F0.0
sI17220
F0.0
sI17230
F0.55
sI17236
F0.885616037725195
sI17238
F0.55
sI17239
F1.0
sI17257
F0.5
sI17263
F0.55
sI17265
F0.5
sI17266
F1.0
sI17281
F0.49765212320829216
sI17283
F0.5
sI17284
F0.45
sI17289
F0.5
sI17290
F0.47652123208292185
sI17292
F0.5
sI17294
F0.5
sI17296
F0.2652123208292185
sI17302
F0.0
sI17335
F0.55
sI17338
F1.0
sI17343
F0.8062897554999999
sI17344
F0.4600365901296017
sI17346
F1.0
sI17350
F0.10000000002661917
sI17361
F0.67195
sI17362
F0.03164174371942771
sI17364
F1.0
sI17368
F0.1
sI17370
F0.18437195915737048
sI17372
F0.9324574141163504
sI17375
F1.0
sI17376
F0.1
sI17377
F0.09999999999999995
sI17380
F0.0
sI17398
F0.55
sI17401
F1.0
sI17446
F0.5
sI17452
F0.704755
sI17454
F0.55
sI17455
F1.0
sI17500
F0.67195
sI17506
F0.55
sI17508
F0.5
sI17509
F1.0
sI17524
F0.55
sI17526
F0.5
sI17527
F0.5
sI17532
F0.5
sI17533
F0.5
sI17535
F0.5
sI17537
F0.495
sI17539
F0.55
sI17545
F0.5
sI17578
F0.5005
sI17580
F0.19310007804746765
sI17581
F0.07504731764849956
sI17586
F0.8062897554999999
sI17587
F0.5
sI17589
F0.12709329141645
sI17591
F0.55
sI17593
F0.55
sI17599
F0.4295847555
sI17604
F0.67195
sI17605
F0.45
sI17607
F0.12041118569890764
sI17609
F0.6355000000000001
sI17611
F0.5
sI17613
F0.5
sI17615
F0.55
sI17618
F0.45
sI17619
F0.5
sI17620
F0.5
sI17623
F0.5
sI17625
F0.5
sI17626
F0.32805000000000006
sI17635
F0.5
sI17641
F0.67195
sI17643
F0.7342795
sI17644
F1.0
sI17689
F0.5950000000000001
sI17695
F0.5950000000000001
sI17697
F0.55
sI17698
F1.0
sI17740
F0.49195
sI17742
F0.5
sI17743
F0.405
sI17748
F0.4905
sI17749
F0.45
sI17751
F0.5
sI17753
F0.5
sI17755
F0.5
sI17761
F0.5
sI17766
F0.55
sI17767
F0.45
sI17769
F0.5
sI17771
F0.5
sI17773
F0.5
sI17775
F0.45
sI17777
F0.5
sI17780
F0.45
sI17781
F0.5
sI17782
F0.5
sI17785
F0.5
sI17787
F0.5
sI17788
F0.5
sI17797
F0.5
sI17803
F0.55
sI17805
F0.5
sI17806
F1.0
sI17820
F0.87290670858355
sI17821
F0.405
sI17823
F0.114383962274805
sI17825
F0.55
sI17827
F0.5
sI17829
F0.405
sI17831
F0.5
sI17834
F0.5
sI17835
F0.5
sI17836
F0.5
sI17839
F0.5950000000000001
sI17841
F0.5950000000000001
sI17842
F0.32805000000000006
sI17847
F1.0
sI17852
F1.0
sI17854
F1.0
sI17858
F1.0
sI17862
F1.0
sI17866
F1.0
sI17868
F1.0
sI17875
F0.18817565220203586
sI17877
F0.12170390689538048
sI17878
F0.10294556604732451
sI17883
F0.9166140915016672
sI17884
F0.13513032946075504
sI17886
F0.09265100944259205
sI17888
F0.5
sI17890
F0.5950000000000001
sI17896
F0.13401632620225276
sI17905
F0.704755
sI17911
F0.704755
sI17913
F0.5
sI17914
F1.0
sI17929
F0.5950000000000001
sI17931
F0.47161764
sI17932
F0.344230155
sI17937
F0.495
sI17938
F0.405
sI17940
F0.45
sI17942
F0.0
sI17944
F0.0
sI17950
F0.67195
sI18013
F0.5
sI18019
F0.5
sI18021
F0.5
sI18022
F1.0
sI18067
F0.5
sI18073
F0.5950000000000001
sI18075
F0.87290670858355
sI18076
F1.0
sI18091
F0.55
sI18093
F0.495
sI18094
F0.45
sI18099
F0.67195
sI18100
F0.5
sI18102
F0.45
sI18104
F0.6355000000000001
sI18106
F0.5
sI18112
F0.0
sI18226
F0.5
sI18228
F0.49999599943607914
sI18229
F0.5
sI18234
F0.55
sI18235
F0.5
sI18237
F0.5
sI18239
F0.5
sI18241
F0.55
sI18247
F0.55
sI18252
F0.6355000000000001
sI18253
F1.0
sI18255
F0.5
sI18257
F0.5017195
sI18261
F0.5
sI18263
F0.5950000000000001
sI18266
F0.5
sI18267
F0.5
sI18268
F1.0
sI18273
F0.5
sI18274
F1.0
sI18283
F0.5
sI18289
F0.5
sI18291
F0.5
sI18292
F1.0
sI18306
F0.704755
sI18307
F0.505
sI18309
F0.15631415934550225
sI18311
F0.7847663949999999
sI18313
F0.55
sI18315
F1.0
sI18320
F1.0
sI18322
F1.0
sI18325
F0.5
sI18327
F0.10502247531912971
sI18328
F0.05776137686128703
sI18333
F0.5
sI18335
F0.67195
sI18338
F0.535951
sI18339
F0.5
sI18340
F1.0
sI18344
F1.0
sI18348
F1.0
sI18351
F0.5950000000000001
sI18352
F1.0
sI18354
F0.0675425858836496
sI18356
F0.704755
sI18361
F0.55
sI18363
F0.7847663949999999
sI18364
F0.5
sI18370
F1.0
sI18372
F1.0
sI18382
F0.27209131325637825
sI18391
F0.5950000000000001
sI18397
F0.5950000000000001
sI18399
F0.55
sI18400
F1.0
sI18417
F0.5
sI18418
F1.0
sI18423
F0.5
sI18424
F1.0
sI18426
F0.5
sI18428
F0.0
sI18468
F0.5
sI18469
F0.505
sI18471
F0.49995999436079125
sI18473
F0.5
sI18475
F0.5
sI18477
F0.5
sI18479
F0.5
sI18482
F0.5
sI18483
F0.55
sI18484
F0.5
sI18487
F0.55
sI18489
F0.5
sI18490
F0.5
sI18495
F0.5
sI18497
F0.5
sI18500
F0.5
sI18501
F0.5
sI18502
F1.0
sI18506
F0.5
sI18510
F0.5
sI18512
F0.5
sI18513
F0.5
sI18514
F1.0
sI18516
F0.5
sI18518
F0.5
sI18523
F0.5
sI18525
F0.49959994360791266
sI18526
F0.47361684259956527
sI18531
F0.55
sI18532
F0.5
sI18534
F0.5
sI18536
F0.5
sI18538
F0.55
sI18544
F0.2721735012835131
sI18549
F0.5
sI18551
F0.5
sI18554
F0.5
sI18555
F0.55
sI18556
F0.5
sI18560
F1.0
sI18564
F1.0
sI18567
F0.55
sI18568
F0.5
sI18570
F0.10107053367749466
sI18572
F0.7342795
sI18574
F0.5
sI18578
F1.0
sI18582
F1.0
sI18593
F1.0
sI18594
F1.0
sI18599
F1.0
sI18601
F1.0
sI18603
F0.55
sI18604
F0.15918387261075745
sI18606
F0.10873667126740859
sI18608
F0.7342795
sI18610
F0.704755
sI18612
F1.0
sI18617
F1.0
sI18619
F1.0
sI18622
F0.10219677349923013
sI18624
F0.10000000000217876
sI18625
F0.09999999999999995
sI18631
F0.55
sI18633
F0.5563928573337384
sI18634
F0.67062457053082
sI18639
F0.495
sI18640
F0.45
sI18642
F0.45
sI18644
F0.0
sI18646
F0.0
sI18652
F0.87290670858355
sI18657
F0.55
sI18658
F1.0
sI18660
F0.405
sI18662
F0.0
sI18666
F0.45
sI18668
F0.0
sI18672
F0.0
sI18678
F0.55
sI18679
F1.0
sI18688
F0.8587852317595001
sI18694
F0.704755
sI18696
F0.7342795
sI18697
F1.0
sI18715
F0.5
sI18721
F0.5
sI18723
F0.5
sI18724
F1.0
sI18741
F0.5
sI18742
F1.0
sI18747
F0.5
sI18748
F1.0
sI18750
F0.5
sI18752
F0.5
sI18793
F0.5
sI18795
F0.843094701955
sI18796
F0.5
sI18802
F1.0
sI18804
F1.0
sI18814
F0.0
sI18819
F0.5
sI18820
F1.0
sI18822
F0.405
sI18824
F0.704755
sI18828
F1.0
sI18833
F1.0
sI18835
F1.0
sI18840
F0.0
sI18850
F0.5
sI18859
F1.0
sI18912
F0.5
sI18913
F1.0
sI18985
F0.0
sI18991
F0.0
sI18993
F0.0
sI19039
F0.0
sI19045
F0.0
sI19047
F0.0
sI19063
F0.0
sI19065
F0.0
sI19071
F0.0
sI19076
F0.0
sI19078
F0.0
sI19084
F0.0
sI19201
F0.0
sI19207
F0.0
sI19209
F0.0
sI19225
F0.0
sI19227
F0.0
sI19233
F0.0
sI19238
F0.0
sI19240
F0.0
sI19246
F0.0
sI19279
F0.0
sI19281
F0.0
sI19287
F0.0
sI19292
F0.0
sI19294
F0.0
sI19300
F0.0
sI19336
F0.0
sI19342
F0.0
sI19344
F0.0
sI19390
F0.0
sI19396
F0.0
sI19398
F0.0
sI19552
F0.0
sI19558
F0.0
sI19560
F0.0
s.