(dp0
I0
F0.5557074236528544
sI1
F0.5503877659870894
sI3
F0.561127081468433
sI5
F0.493731714313861
sI7
F0.45733587712777746
sI9
F0.5913334469209264
sI11
F0.48961516890581513
sI14
F0.5008050000000001
sI15
F0.49459419221073114
sI16
F0.5
sI19
F0.4411296214977481
sI21
F0.49429551608411065
sI22
F0.49995
sI27
F0.5927902105124513
sI29
F0.500377914158856
sI32
F0.500033974397981
sI33
F0.43618824326846656
sI34
F0.3819340266755998
sI38
F0.5040175615916797
sI42
F0.5178585278894147
sI44
F0.5
sI45
F0.42948049071160205
sI46
F0.36672541336110603
sI48
F0.5
sI50
F0.5002353487093689
sI52
F0.32805000000000006
sI55
F0.4890353603952827
sI57
F0.48385681499330746
sI58
F0.5
sI63
F0.41108413550449574
sI64
F0.495
sI66
F0.49735
sI68
F0.5080500000000001
sI70
F0.5
sI76
F0.5
sI81
F0.5417922864586269
sI83
F0.5041379170775991
sI86
F0.4971707199838106
sI87
F0.24099543001096255
sI88
F0.5
sI92
F0.5039483252893706
sI96
F0.5
sI98
F0.5
sI99
F0.4912929653705529
sI100
F0.5007198128442328
sI102
F0.4940787090539159
sI104
F0.32805000000000006
sI106
F0.5
sI110
F0.5048321511723695
sI114
F0.495
sI116
F0.36450000000000005
sI125
F0.5
sI126
F0.499059027
sI128
F0.36450000000000005
sI131
F0.5
sI132
F0.45
sI133
F0.5
sI135
F0.24319834006676713
sI136
F0.4824259254517633
sI138
F0.4596852521163279
sI140
F0.29524500000000004
sI142
F0.45
sI144
F0.20296765895097138
sI146
F0.192990798045
sI149
F0.55
sI150
F0.17433922005
sI151
F0.5
sI154
F0.4545
sI156
F0.405
sI157
F0.495
sI163
F0.5351746920649337
sI165
F0.5714028960474423
sI166
F0.7553193764388754
sI171
F0.5949476761790103
sI172
F0.5553843537674947
sI174
F0.5859341419036045
sI176
F0.5706391877680882
sI178
F0.5334346335111209
sI184
F0.7431197685527245
sI189
F0.6014359237279606
sI190
F0.5382776855442237
sI192
F0.61291161895898
sI194
F0.6749444259723693
sI196
F0.07504731764849956
sI198
F0.6432006242578724
sI200
F0.5160376075196482
sI203
F0.9507614548908194
sI204
F0.611519556833946
sI205
F0.87290670858355
sI208
F0.08510526256075618
sI210
F0.5
sI211
F0.87290670858355
sI220
F0.2657205
sI226
F0.114383962274805
sI228
F0.23914845
sI229
F0.0
sI243
F0.6625681722466281
sI245
F0.49585328339501406
sI248
F0.5008185
sI249
F0.3193857006274446
sI250
F0.5005045
sI254
F0.5
sI258
F0.5
sI260
F0.5
sI261
F0.48987671099714686
sI262
F0.5
sI264
F0.4998659333696097
sI266
F0.5
sI268
F0.5
sI272
F0.5186974618996274
sI276
F0.5406210932651744
sI278
F0.405
sI287
F0.5
sI288
F0.4959
sI290
F0.405
sI293
F0.5
sI294
F0.5
sI295
F0.5
sI297
F0.4946709771172021
sI298
F0.5
sI300
F0.499970963096779
sI302
F0.5
sI304
F0.5
sI306
F0.49687287538452163
sI308
F0.45
sI311
F0.55
sI312
F0.45
sI313
F0.5
sI316
F0.5
sI318
F0.4953723657445516
sI319
F0.5
sI326
F0.5103585194744564
sI330
F0.19834448116971024
sI332
F0.17433922005
sI341
F0.5
sI342
F0.49012210423074115
sI344
F0.36450000000000005
sI347
F0.5
sI348
F0.17433922005
sI349
F0.5
sI359
F0.0
sI371
F0.0
sI375
F0.0
sI378
F0.5001425154291804
sI380
F0.5185143174423742
sI383
F0.55
sI384
F0.17321362260384254
sI385
F0.49152563013289396
sI389
F0.55
sI393
F0.11626476986722895
sI395
F0.08338590849833284
sI396
F0.492546366642253
sI397
F0.4685148127701739
sI399
F0.45826530303975543
sI401
F0.405
sI403
F0.32805000000000006
sI405
F0.6399207044185313
sI406
F0.5438229183457972
sI408
F0.6525804650666442
sI410
F0.49766079895265314
sI412
F0.5040826108891775
sI414
F0.6712152221673076
sI416
F0.2657205
sI419
F0.9392116727047154
sI420
F0.4994473940272495
sI421
F0.907348990557408
sI424
F0.49993736341320777
sI426
F0.5007807999999999
sI427
F0.8970544339526756
sI432
F0.9038498003043955
sI434
F0.5504160194238212
sI437
F0.87290670858355
sI438
F0.918394836241172
sI439
F0.9249526823515004
sI443
F0.5950000000000001
sI447
F0.9324574141163504
sI449
F0.505
sI450
F0.5029705
sI451
F0.55
sI453
F0.5
sI455
F0.5
sI457
F0.5
sI460
F0.4977427405108469
sI462
F0.5
sI463
F0.5021044151084684
sI468
F0.29524500000000004
sI469
F0.5
sI471
F0.5
sI473
F0.36450000000000005
sI475
F0.49967602640432757
sI481
F0.5210441510846833
sI487
F0.4972841109339267
sI489
F0.42953195266803806
sI490
F0.5005
sI495
F0.4913742960676385
sI496
F0.5
sI498
F0.49104502888268187
sI500
F0.4865797765625894
sI502
F0.5
sI508
F0.5
sI513
F0.4975435305533334
sI514
F0.4986535000475546
sI516
F0.500005
sI518
F0.49839840243733363
sI520
F0.29524500000000004
sI522
F0.5
sI524
F0.5
sI527
F0.5
sI528
F0.5
sI529
F0.5
sI532
F0.31027050000000006
sI534
F0.5
sI535
F0.5
sI544
F0.5
sI550
F0.45
sI552
F0.4545
sI553
F0.0
sI567
F0.27600262351771737
sI568
F0.495
sI570
F0.23119802512981022
sI572
F0.215233605
sI574
F0.45
sI576
F0.49995
sI578
F0.5
sI581
F0.4504491
sI582
F0.5
sI583
F0.5
sI586
F0.5
sI588
F0.20983416444
sI589
F0.5
sI594
F0.5115474873353999
sI596
F0.5077810450483784
sI599
F0.4714911286103598
sI600
F0.5
sI601
F0.5
sI605
F0.4933920703119179
sI609
F0.5
sI611
F0.45
sI612
F0.5044566863060734
sI613
F0.55
sI615
F0.5950000000000001
sI617
F0.405
sI619
F0.5
sI622
F0.45
sI624
F0.1937102445
sI625
F0.5
sI630
F0.17433922005
sI631
F0.5
sI633
F0.5
sI635
F0.36450000000000005
sI637
F0.5
sI643
F0.45
sI652
F0.473535
sI658
F0.23914845
sI660
F0.1937102445
sI661
F0.0
sI676
F0.11080925107282345
sI678
F0.5025063130046109
sI679
F0.501355
sI684
F0.49433895
sI685
F0.474255
sI687
F0.5005
sI689
F0.505
sI691
F0.45
sI697
F0.51355
sI729
F0.6128649326717408
sI731
F0.49483482792791283
sI734
F0.5013037071616727
sI735
F0.49669883419267064
sI736
F0.5
sI740
F0.47952449999999996
sI744
F0.5
sI746
F0.45
sI747
F0.4962855157335086
sI748
F0.5
sI750
F0.5005
sI752
F0.4999989705443395
sI754
F0.5
sI758
F0.5014
sI762
F0.5
sI764
F0.5
sI773
F0.5
sI774
F0.5
sI776
F0.5
sI779
F0.5
sI780
F0.5
sI781
F0.0
sI783
F0.49306953556108213
sI784
F0.5
sI786
F0.508819009833899
sI788
F0.4995
sI790
F0.5
sI792
F0.495
sI794
F0.45
sI797
F0.495
sI798
F0.45
sI799
F0.5
sI802
F0.5
sI804
F0.5
sI805
F0.5
sI812
F0.5075801870770991
sI816
F0.5005
sI818
F0.5
sI827
F0.0
sI828
F0.5009966674246952
sI830
F0.5207761441641874
sI833
F0.4804261129795879
sI834
F0.505
sI835
F0.5
sI845
F0.5
sI857
F0.5950000000000001
sI861
F0.55
sI863
F1.0
sI864
F0.5
sI866
F0.45
sI869
F0.5
sI870
F0.45
sI871
F0.5
sI875
F0.0
sI879
F0.0
sI882
F0.5
sI883
F0.5
sI885
F0.5
sI887
F0.45
sI889
F0.5
sI891
F0.6027400477675319
sI892
F0.6367924401514461
sI894
F0.6328303862902229
sI896
F0.5047850658519449
sI898
F0.405
sI900
F0.63566191156761
sI902
F0.48489894269999995
sI905
F0.8970544339526756
sI906
F0.49520401243100687
sI907
F0.9249526823515004
sI910
F0.405
sI912
F0.49693735
sI913
F0.6085879333090489
sI918
F0.5804927313615672
sI920
F0.5884284941485267
sI923
F0.9249526823515004
sI924
F0.40971140915016674
sI925
F0.0
sI929
F0.885616037725195
sI933
F0.9166140915016672
sI935
F0.5
sI936
F0.405
sI937
F0.0
sI939
F0.5
sI941
F0.5
sI946
F0.643756551922095
sI948
F0.6588573285615847
sI949
F0.885616037725195
sI954
F0.5089966817443601
sI955
F0.87290670858355
sI957
F0.9249526823515004
sI959
F0.505
sI961
F0.5
sI967
F0.5623997979618494
sI974
F0.5
sI978
F0.5
sI980
F0.5
sI989
F0.5
sI990
F0.5004
sI992
F0.5
sI995
F0.5
sI996
F0.504
sI997
F0.495
sI1007
F0.5
sI1019
F0.5
sI1023
F0.5
sI1025
F1.0
sI1026
F0.5
sI1028
F0.5
sI1031
F0.5
sI1032
F0.5
sI1033
F0.5
sI1037
F0.5
sI1041
F0.5
sI1043
F0.5
sI1044
F0.5
sI1045
F0.5
sI1047
F0.5
sI1049
F0.5
sI1051
F0.5
sI1061
F0.5
sI1073
F0.5950000000000001
sI1077
F0.5
sI1079
F1.0
sI1109
F0.5101630316331975
sI1113
F0.5005860846398447
sI1115
F0.45
sI1124
F0.0
sI1125
F0.5140185637715824
sI1127
F0.5233820292497375
sI1130
F0.4961123187311512
sI1131
F0.5617004460732539
sI1132
F0.4941259913604771
sI1134
F0.5673737920664679
sI1136
F0.45087119581978347
sI1139
F0.55
sI1140
F0.5659291272413174
sI1141
F0.9764493565137687
sI1145
F0.5
sI1149
F0.9249526823515004
sI1151
F0.45
sI1152
F0.5103694074130201
sI1153
F0.4913234547501541
sI1155
F0.5336605225
sI1157
F0.5
sI1159
F0.36450000000000005
sI1163
F0.885616037725195
sI1167
F0.9641051006154073
sI1169
F0.5
sI1178
F0.55
sI1179
F0.5275317024590499
sI1181
F0.585163027495
sI1184
F0.67195
sI1185
F0.45
sI1186
F0.0
sI1188
F0.4571088171934824
sI1189
F0.555933086366618
sI1191
F0.5077858526837702
sI1193
F0.488645334144426
sI1195
F0.5413155230319603
sI1197
F0.5241466842492919
sI1199
F0.5
sI1202
F0.55
sI1203
F0.5
sI1204
F0.87290670858355
sI1207
F0.48797787443016194
sI1209
F0.4990138100977359
sI1210
F0.49966786828591186
sI1215
F0.4983635071715391
sI1216
F0.5
sI1218
F0.50095
sI1220
F0.4995
sI1222
F0.5
sI1224
F0.5
sI1226
F0.45
sI1229
F0.49735450000000003
sI1230
F0.5
sI1231
F0.5
sI1234
F0.5
sI1236
F0.5095000000000001
sI1237
F0.55
sI1242
F0.5
sI1244
F0.5
sI1247
F0.5
sI1248
F0.5
sI1249
F0.0
sI1253
F0.5
sI1257
F0.5
sI1259
F0.5
sI1260
F0.5
sI1261
F0.0
sI1263
F0.55
sI1265
F0.5
sI1270
F0.5
sI1272
F0.5
sI1273
F0.5
sI1278
F0.45
sI1279
F0.5
sI1281
F0.55
sI1283
F0.45
sI1285
F0.5
sI1291
F0.5
sI1296
F0.4993605
sI1298
F0.45
sI1301
F0.495
sI1302
F0.5
sI1303
F0.5
sI1307
F0.0
sI1311
F0.0
sI1314
F0.5073300000000001
sI1315
F0.55
sI1317
F0.55
sI1319
F0.45
sI1321
F0.5
sI1325
F0.5272060731399999
sI1329
F0.5
sI1331
F0.5
sI1340
F0.0
sI1341
F0.55
sI1343
F0.5736156674950001
sI1346
F0.6355000000000001
sI1347
F0.5
sI1348
F0.0
sI1350
F0.5
sI1351
F0.5
sI1353
F0.5
sI1355
F0.5
sI1357
F0.5
sI1359
F0.0
sI1364
F0.0
sI1366
F0.0
sI1369
F0.5
sI1371
F0.5
sI1372
F0.5
sI1378
F0.45610107799500005
sI1380
F0.502458798558452
sI1381
F0.5950000000000001
sI1386
F0.6437113145909789
sI1387
F0.9166140915016672
sI1389
F0.9166140915016672
sI1391
F0.52615
sI1393
F0.45
sI1399
F0.45
sI1404
F0.2657205
sI1405
F0.0
sI1407
F0.5213687839822929
sI1409
F0.5517074824054151
sI1413
F0.5291105839927384
sI1415
F0.511927187907635
sI1418
F0.9249526823515004
sI1419
F0.2657205
sI1420
F0.0
sI1425
F0.45
sI1426
F0.0
sI1435
F1.0
sI1441
F1.0
sI1443
F1.0
sI1459
F0.4427813634003815
sI1461
F0.4320093164153509
sI1462
F0.3571248375575511
sI1467
F0.45952485521565795
sI1468
F0.49188091238522097
sI1470
F0.5
sI1472
F0.5
sI1474
F0.491959272024405
sI1480
F0.3219295684217985
sI1485
F0.5031390423922726
sI1486
F0.5039862382380201
sI1488
F0.50078329245
sI1490
F0.4995
sI1492
F0.3460514836205471
sI1494
F0.49999914500000003
sI1496
F0.4995
sI1499
F0.5
sI1500
F0.5
sI1501
F0.5031095233339526
sI1504
F0.36297278094031693
sI1506
F0.504
sI1507
F0.5950000000000001
sI1516
F0.32805000000000006
sI1522
F0.45
sI1524
F0.5
sI1525
F0.0
sI1539
F0.5208012257566019
sI1540
F0.5626205253799008
sI1542
F0.6103864492796423
sI1544
F0.09634850638978647
sI1546
F0.36450000000000005
sI1548
F0.5700596359989119
sI1550
F0.5121809037918217
sI1553
F0.55
sI1554
F0.497147611242555
sI1555
F0.50291647795
sI1558
F0.29524500000000004
sI1560
F0.215233605
sI1561
F0.2532228599233448
sI1566
F0.5282456703777767
sI1568
F0.10762261557757849
sI1571
F0.4905
sI1572
F0.08472657621161503
sI1573
F0.2578873872424807
sI1577
F0.49273710480157257
sI1581
F0.5
sI1583
F0.45
sI1584
F0.156905298045
sI1585
F0.24565795513368008
sI1587
F0.495
sI1589
F0.5
sI1591
F0.17433922005
sI1594
F0.2657205
sI1596
F0.1937102445
sI1597
F0.5
sI1602
F0.19161586290324478
sI1603
F0.14594556254857963
sI1605
F0.55
sI1607
F1.0
sI1609
F0.11140708419124432
sI1615
F0.1937102445
sI1624
F0.301806
sI1630
F0.29524500000000004
sI1632
F0.29524500000000004
sI1633
F0.0
sI1648
F0.580064818116194
sI1650
F0.5037535000000001
sI1651
F0.9676945905538666
sI1656
F0.49755109509999995
sI1657
F0.5202913819466284
sI1659
F0.499825
sI1661
F0.52615
sI1663
F0.5587801731142658
sI1669
F1.0
sI1701
F0.5010748780427411
sI1702
F0.501355
sI1704
F0.50119579
sI1706
F0.5
sI1708
F0.500188375003832
sI1710
F0.5092647598786629
sI1712
F0.405
sI1715
F0.5
sI1716
F0.45
sI1717
F0.499955
sI1720
F0.5
sI1722
F0.5
sI1723
F0.55
sI1728
F0.5194404760804219
sI1730
F0.455095
sI1733
F0.5
sI1734
F0.45
sI1735
F0.51166772245
sI1739
F0.5
sI1743
F0.5
sI1745
F0.5
sI1746
F0.5
sI1747
F0.5
sI1749
F0.5
sI1751
F0.5
sI1753
F0.45
sI1756
F0.5
sI1758
F0.5
sI1759
F0.5
sI1764
F0.487566077995
sI1765
F0.5
sI1767
F0.5
sI1769
F1.0
sI1771
F0.5
sI1777
F0.5
sI1782
F0.5685809916459437
sI1784
F0.45
sI1787
F0.5950000000000001
sI1788
F0.17049716734050002
sI1789
F0.5
sI1793
F0.55
sI1797
F0.5
sI1799
F0.5
sI1800
F0.29819745
sI1801
F0.5
sI1803
F0.5
sI1805
F0.5
sI1807
F0.5
sI1811
F0.0
sI1815
F0.0
sI1826
F0.0
sI1827
F0.0
sI1832
F0.0
sI1834
F0.0
sI1836
F0.5660293202371182
sI1837
F0.5677811318383456
sI1839
F0.9452905054342439
sI1841
F1.0
sI1843
F0.29524500000000004
sI1845
F0.9166140915016672
sI1847
F1.0
sI1851
F0.08894981091138987
sI1852
F0.495
sI1855
F0.3641355
sI1857
F0.32805000000000006
sI1858
F0.495
sI1864
F0.4773689873600681
sI1866
F0.5119579
sI1867
F0.55
sI1872
F0.32805000000000006
sI1873
F0.43168455962208185
sI1875
F0.490905
sI1877
F0.45
sI1879
F0.36450000000000005
sI1885
F1.0
sI1890
F0.547098578709991
sI1891
F0.9556853094017375
sI1893
F0.5950000000000001
sI1895
F0.505
sI1897
F0.5686470550000002
sI1899
F0.565110815585275
sI1901
F0.47219500000000003
sI1904
F0.67195
sI1905
F0.45
sI1906
F0.9556853094017375
sI1909
F1.0
sI1911
F1.0
sI1921
F0.5
sI1927
F0.36450000000000005
sI1929
F0.45
sI1930
F0.0
sI1948
F0.32805000000000006
sI1954
F0.45
sI1956
F0.36450000000000005
sI1957
F0.0
sI1972
F0.5026233834220061
sI1974
F0.499545
sI1975
F0.522873762466645
sI1980
F0.5
sI1981
F0.4897790317196786
sI1983
F0.5
sI1985
F0.5
sI1987
F0.4882575799901438
sI1993
F0.5727532240450001
sI2026
F0.2657205
sI2028
F0.09265100944259205
sI2029
F0.5
sI2034
F0.49706100000000003
sI2035
F0.495
sI2037
F0.48645
sI2039
F0.36450000000000005
sI2041
F0.5
sI2047
F0.20326446422594996
sI2052
F0.5167131539461385
sI2053
F0.9279476609821966
sI2055
F0.553695335161421
sI2057
F0.36450000000000005
sI2059
F0.18286470011705885
sI2061
F0.5752033480112294
sI2063
F0.49248760716042483
sI2066
F0.48772239522237243
sI2067
F0.49237900828301706
sI2068
F0.4765743550991606
sI2071
F0.1828298462355
sI2073
F0.2657205
sI2074
F0.704755
sI2083
F0.5
sI2089
F0.10294556604732451
sI2091
F0.45
sI2092
F0.0
sI2137
F0.405
sI2143
F0.03988322153843625
sI2145
F0.45
sI2146
F0.0
sI2187
F0.5872900770984885
sI2189
F0.5000314324551681
sI2192
F0.5214614070058025
sI2193
F0.49598812949857823
sI2194
F0.4999265150454483
sI2198
F0.5
sI2202
F0.4999173203072571
sI2204
F0.5
sI2205
F0.49488632410961253
sI2206
F0.50095
sI2208
F0.5
sI2210
F0.405
sI2212
F0.4995
sI2216
F0.5010016675147476
sI2220
F0.50095
sI2222
F0.5
sI2231
F0.5
sI2232
F0.5005
sI2234
F0.5
sI2237
F0.5005
sI2238
F0.5095000000000001
sI2239
F0.5
sI2241
F0.4919257493128409
sI2242
F0.5
sI2244
F0.5009049999999999
sI2246
F0.4545
sI2248
F0.5
sI2250
F0.5005
sI2252
F0.5
sI2255
F0.5
sI2256
F0.5
sI2257
F0.5
sI2260
F0.5
sI2262
F0.5
sI2263
F0.5
sI2270
F0.5103335332621576
sI2274
F0.5065778988716061
sI2276
F0.5435250991736877
sI2285
F0.5144665896443593
sI2286
F0.508228682978677
sI2288
F0.405
sI2291
F0.0
sI2292
F0.5258526626363904
sI2293
F0.5028907639098315
sI2303
F0.5950000000000001
sI2315
F0.5
sI2319
F0.5950000000000001
sI2321
F1.0
sI2322
F0.49995
sI2324
F0.45
sI2327
F0.0
sI2328
F0.4995
sI2329
F0.5
sI2333
F0.55
sI2337
F0.5
sI2339
F0.5
sI2340
F0.405
sI2341
F0.5
sI2343
F0.0
sI2347
F0.45
sI2349
F0.5834737321236472
sI2350
F0.5574862927570731
sI2352
F0.8764966892016003
sI2354
F0.8995796065520116
sI2356
F0.4912634149671309
sI2358
F0.5709004859506462
sI2360
F0.49824981640000005
sI2363
F0.9392116727047154
sI2364
F0.49490915853955375
sI2365
F0.5204558005635456
sI2368
F0.496935
sI2370
F0.4986
sI2371
F0.8970544339526756
sI2376
F0.5611653773301382
sI2378
F0.5100166751474762
sI2381
F0.9392116727047154
sI2382
F0.5047242247345405
sI2383
F0.502711345
sI2387
F0.5950000000000001
sI2391
F0.5559157359532285
sI2393
F0.4425742939914945
sI2394
F0.49980645000000007
sI2395
F0.55
sI2397
F0.55
sI2399
F0.5095000000000001
sI2401
F0.5
sI2404
F0.547116190089466
sI2406
F0.504118
sI2407
F0.8970544339526756
sI2412
F0.5956921349009308
sI2413
F0.9249526823515004
sI2415
F0.9601167784615637
sI2417
F0.5180500000000001
sI2419
F0.5232088237060496
sI2425
F0.505
sI2432
F0.5126746213016877
sI2436
F0.5
sI2438
F0.5
sI2447
F0.5
sI2448
F0.5143854434045868
sI2450
F0.5
sI2453
F0.5
sI2454
F0.5
sI2455
F0.5
sI2465
F0.5
sI2477
F0.5
sI2481
F0.5
sI2483
F1.0
sI2484
F0.50045355
sI2486
F0.505
sI2489
F0.55
sI2490
F0.5
sI2491
F0.5
sI2495
F0.5
sI2499
F0.5
sI2501
F0.5
sI2502
F0.5
sI2503
F0.5
sI2505
F0.5
sI2507
F0.5
sI2509
F0.5
sI2519
F0.5950000000000001
sI2531
F0.5
sI2535
F0.5950000000000001
sI2537
F1.0
sI2567
F0.55
sI2571
F0.5090339274573991
sI2573
F0.5
sI2582
F0.5
sI2583
F0.49704578836244595
sI2585
F0.405
sI2588
F0.0
sI2589
F0.5276946654435808
sI2590
F0.41988696892841015
sI2592
F0.5873510347828731
sI2594
F0.5135510360911136
sI2597
F0.9166140915016672
sI2598
F0.4760305955907727
sI2599
F0.5049909517639813
sI2603
F0.55
sI2607
F0.5013516353378905
sI2609
F0.45
sI2610
F0.5427133628830243
sI2611
F0.9452905054342439
sI2613
F0.9556853094017375
sI2615
F0.5
sI2617
F0.492758147682405
sI2621
F0.6355000000000001
sI2625
F0.9317604435701883
sI2627
F0.505
sI2636
F0.55
sI2637
F0.9166140915016672
sI2639
F0.5
sI2642
F0.5
sI2643
F0.954615897637128
sI2644
F0.9788044208623918
sI2646
F0.47484196007589813
sI2647
F0.5042665744369776
sI2649
F0.503065
sI2651
F0.5
sI2653
F0.494667
sI2655
F0.5287614468787702
sI2657
F0.2657205
sI2660
F0.5950000000000001
sI2661
F0.259783605
sI2662
F0.49999975192089263
sI2665
F0.5007434149875917
sI2667
F0.5
sI2668
F0.9452905054342439
sI2673
F0.49588950824229183
sI2674
F0.49995
sI2676
F0.50240755
sI2678
F0.405
sI2680
F0.4995
sI2682
F0.50135455
sI2684
F0.5
sI2687
F0.5
sI2688
F0.5
sI2689
F0.5
sI2692
F0.5
sI2694
F0.5
sI2695
F0.5
sI2700
F0.5
sI2702
F0.5
sI2705
F0.5
sI2706
F0.5
sI2707
F0.5
sI2711
F0.5
sI2715
F0.5
sI2717
F0.5
sI2718
F0.5
sI2719
F0.5
sI2721
F0.5
sI2723
F0.5
sI2725
F0.5
sI2728
F0.5
sI2730
F0.5
sI2731
F0.5
sI2736
F0.504495
sI2737
F0.5
sI2739
F0.5
sI2741
F0.5
sI2743
F0.5
sI2749
F0.5
sI2754
F0.4949349075
sI2756
F0.45
sI2759
F0.0
sI2760
F0.490457025
sI2761
F0.5
sI2765
F0.5
sI2769
F0.5
sI2771
F0.5
sI2772
F0.45
sI2773
F0.5
sI2775
F0.0
sI2779
F0.45
sI2783
F0.5212360559452396
sI2787
F0.5
sI2789
F0.5354629058604443
sI2798
F0.4997416852415911
sI2799
F0.5
sI2801
F0.5
sI2804
F0.0
sI2805
F0.5
sI2806
F0.5
sI2808
F0.45
sI2809
F0.5
sI2811
F0.0
sI2815
F0.5
sI2817
F0.49995
sI2819
F0.5
sI2822
F0.0
sI2823
F0.5
sI2824
F0.5
sI2827
F0.5
sI2830
F0.0
sI2836
F0.496864245605839
sI2838
F0.5213511550000001
sI2839
F0.6355000000000001
sI2844
F0.5096510778167423
sI2845
F0.55
sI2847
F0.5950000000000001
sI2849
F0.5
sI2851
F0.5041985492936449
sI2857
F0.5
sI2862
F0.4976671682069706
sI2863
F0.5047633740528217
sI2865
F0.502255
sI2867
F0.4991
sI2869
F0.405
sI2871
F0.5176831386785284
sI2873
F0.552938963693274
sI2876
F0.7342795
sI2877
F0.4842081366296283
sI2878
F0.49998692049277926
sI2881
F0.45
sI2883
F0.5180500000000001
sI2884
F0.5950000000000001
sI2893
F1.0
sI2899
F1.0
sI2901
F1.0
sI2918
F0.501355
sI2922
F0.496296008536542
sI2924
F0.45
sI2933
F0.5
sI2934
F0.49630499999999994
sI2936
F0.45855000000000007
sI2939
F0.5
sI2940
F0.45
sI2941
F0.5
sI2951
F0.5
sI2963
F0.5
sI2967
F0.55
sI2969
F1.0
sI2970
F0.4834695795274152
sI2972
F0.405
sI2975
F0.5
sI2976
F0.405
sI2977
F0.5
sI2981
F0.5
sI2985
F0.5
sI2987
F0.5
sI2988
F0.45
sI2989
F0.5
sI2991
F0.5
sI2993
F0.5
sI2995
F0.5
sI3005
F0.5950000000000001
sI3017
F0.5950000000000001
sI3021
F0.5950000000000001
sI3023
F1.0
sI3053
F0.5
sI3057
F0.495
sI3059
F0.5
sI3068
F0.0
sI3069
F0.5
sI3071
F0.5
sI3074
F0.0
sI3075
F0.45
sI3076
F0.5
sI3078
F0.6646079371876288
sI3080
F0.405
sI3083
F0.9249526823515004
sI3084
F0.27924345000000006
sI3085
F0.4632795
sI3089
F0.5950000000000001
sI3093
F0.48873782615415584
sI3095
F0.45
sI3096
F0.2657205
sI3097
F0.48195
sI3099
F0.4908745
sI3101
F0.45
sI3103
F0.36450000000000005
sI3107
F0.8970544339526756
sI3111
F0.484255
sI3113
F0.4645
sI3122
F0.5950000000000001
sI3123
F0.47061
sI3125
F0.405
sI3128
F0.55
sI3129
F0.405
sI3130
F0.0
sI3132
F0.405
sI3133
F0.8970544339526756
sI3135
F0.885616037725195
sI3137
F0.36450000000000005
sI3139
F0.405
sI3141
F0.9166140915016672
sI3143
F0.5
sI3146
F0.55
sI3147
F0.405
sI3148
F0.9324574141163504
sI3151
F0.45
sI3153
F0.45
sI3154
F0.9324574141163504
sI3167
F0.5
sI3179
F0.5
sI3183
F0.5
sI3185
F1.0
sI3215
F0.5
sI3219
F0.5
sI3221
F0.5
sI3230
F0.5
sI3231
F0.5
sI3233
F0.5
sI3236
F0.5
sI3237
F0.5
sI3238
F0.5
sI3302
F0.5
sI3314
F0.5950000000000001
sI3318
F0.704755
sI3320
F1.0
sI3323
F0.5950000000000001
sI3327
F0.5543673680209437
sI3329
F0.12709329141645
sI3338
F0.5
sI3339
F0.5012345693907188
sI3341
F0.1412147682405
sI3344
F0.5
sI3345
F0.020014018836903794
sI3346
F0.44787647682404996
sI3356
F0.55
sI3368
F0.67195
sI3372
F0.9709251314984799
sI3374
F1.0
sI3375
F0.5
sI3377
F0.5
sI3380
F0.5950000000000001
sI3381
F0.15960279265205693
sI3382
F0.4999153537484948
sI3386
F0.5
sI3390
F0.49549613222994926
sI3392
F0.45
sI3393
F0.08916876835634895
sI3394
F0.49999939330569154
sI3396
F0.4935446515590508
sI3398
F0.45
sI3400
F0.1412147682405
sI3402
F0.49623600151269553
sI3404
F0.45
sI3407
F0.5
sI3408
F0.44955
sI3409
F0.495
sI3413
F0.5
sI3417
F0.5
sI3419
F0.5
sI3420
F0.45
sI3421
F0.5
sI3423
F0.5
sI3425
F0.5
sI3427
F0.5
sI3431
F0.5
sI3435
F0.5
sI3437
F0.5
sI3446
F0.5
sI3447
F0.5
sI3449
F0.5
sI3452
F0.5
sI3453
F0.5
sI3454
F0.0
sI3456
F0.37755000000000005
sI3457
F0.5
sI3459
F0.5
sI3461
F0.5
sI3463
F0.5
sI3465
F0.5
sI3467
F0.5
sI3470
F0.5
sI3471
F0.5
sI3472
F0.5
sI3475
F0.5
sI3477
F0.5
sI3478
F0.5
sI3485
F0.5
sI3489
F0.46437704999999996
sI3491
F0.405
sI3500
F0.0
sI3501
F0.5
sI3503
F0.5
sI3506
F0.0
sI3507
F0.405
sI3508
F0.5
sI3518
F0.67195
sI3530
F0.67195
sI3534
F0.5
sI3536
F1.0
sI3537
F0.495
sI3539
F0.45
sI3542
F0.0
sI3543
F0.405
sI3544
F0.5
sI3548
F0.0
sI3552
F0.0
sI3555
F0.5
sI3556
F0.5
sI3558
F0.0
sI3562
F0.5
sI3564
F0.26545477949999996
sI3565
F0.55
sI3567
F0.55
sI3569
F0.5
sI3571
F0.405
sI3573
F0.9249526823515004
sI3575
F0.45
sI3578
F0.6355000000000001
sI3579
F0.45
sI3580
F0.885616037725195
sI3583
F0.45
sI3585
F0.45
sI3586
F0.5
sI3591
F0.48195
sI3593
F0.45
sI3596
F0.67195
sI3597
F0.405
sI3598
F0.0
sI3602
F0.9392116727047154
sI3606
F0.45340155000000004
sI3608
F0.29524500000000004
sI3609
F0.405
sI3610
F0.0
sI3612
F0.55
sI3614
F0.5
sI3619
F1.0
sI3621
F1.0
sI3627
F1.0
sI3632
F1.0
sI3634
F1.0
sI3640
F1.0
sI3645
F0.4973502145745745
sI3646
F0.501255
sI3648
F0.49932035784999995
sI3650
F0.5
sI3652
F0.4995
sI3654
F0.5
sI3656
F0.505
sI3659
F0.55
sI3660
F0.5
sI3661
F0.4998458165
sI3664
F0.5080500000000001
sI3666
F0.45
sI3667
F0.55
sI3672
F0.5050746062282383
sI3674
F0.5
sI3677
F0.5
sI3678
F0.5
sI3679
F0.5111169588999999
sI3683
F0.5
sI3687
F0.5
sI3689
F0.5
sI3690
F0.505
sI3691
F0.5950000000000001
sI3693
F0.55
sI3695
F0.5
sI3697
F0.5
sI3700
F0.5
sI3702
F0.5
sI3703
F0.5
sI3708
F0.5
sI3709
F0.5
sI3711
F0.5
sI3713
F1.0
sI3715
F0.4993439
sI3721
F0.5
sI3726
F0.514786305227958
sI3728
F0.142061256632923
sI3731
F0.0
sI3732
F0.5332598749541408
sI3733
F0.49979476795914657
sI3737
F0.5950000000000001
sI3741
F0.5635064994778473
sI3743
F0.5329249687482557
sI3744
F0.27523395000000006
sI3745
F0.495
sI3747
F0.0
sI3751
F0.23914845
sI3755
F0.48195
sI3759
F0.49989736786779043
sI3761
F0.215233605
sI3770
F0.4995129031901238
sI3771
F0.495
sI3773
F0.405
sI3776
F0.0
sI3777
F0.2657205
sI3778
F0.5
sI3780
F0.21888922005
sI3781
F0.495
sI3783
F0.0
sI3787
F0.405
sI3789
F0.6355000000000001
sI3791
F1.0
sI3795
F0.5137526930653272
sI3796
F0.47307592676845267
sI3799
F0.45
sI3802
F0.0
sI3808
F0.49559562609950386
sI3810
F0.5079180745
sI3811
F0.55
sI3816
F0.4955833391946904
sI3817
F0.48787962003022883
sI3819
F0.505738
sI3821
F0.5297950000000001
sI3823
F0.48891970613554214
sI3829
F1.0
sI3834
F0.5400443576063438
sI3835
F0.9507614548908194
sI3837
F0.8970544339526756
sI3839
F0.5095000000000001
sI3841
F0.5638177944999999
sI3843
F0.5218422656643411
sI3845
F0.5074227226226233
sI3848
F0.885616037725195
sI3849
F0.4797895241695353
sI3850
F0.49999999999999933
sI3853
F1.0
sI3855
F1.0
sI3865
F0.5
sI3871
F0.405
sI3873
F0.36450000000000005
sI3874
F0.0
sI3888
F0.50074554595815
sI3890
F0.5
sI3893
F0.5
sI3894
F0.4995
sI3895
F0.5018837500383195
sI3899
F0.5
sI3903
F0.5
sI3905
F0.5
sI3906
F0.49905
sI3907
F0.55
sI3909
F0.5
sI3911
F0.5
sI3913
F0.5
sI3917
F0.50095
sI3921
F0.5
sI3923
F0.5
sI3932
F0.5
sI3933
F0.5
sI3935
F0.5
sI3938
F0.5
sI3939
F0.5
sI3940
F0.5
sI3942
F0.5040894595815
sI3943
F0.500075095815
sI3945
F0.5
sI3947
F1.0
sI3949
F0.5
sI3951
F0.5
sI3953
F1.0
sI3957
F0.5
sI3958
F0.5
sI3961
F0.5
sI3963
F0.5
sI3964
F0.5
sI3971
F0.5
sI3975
F0.5265134249416596
sI3977
F0.405
sI3986
F0.9166140915016672
sI3987
F0.4905
sI3989
F0.45
sI3992
F0.0
sI3993
F0.30410760244500007
sI3994
F0.47391484500000003
sI4004
F0.0
sI4016
F0.0
sI4020
F0.0
sI4023
F0.8970544339526756
sI4025
F1.0
sI4029
F0.5494694800921165
sI4030
F0.4999985474632516
sI4038
F0.8970544339526756
sI4040
F1.0
sI4041
F0.45
sI4042
F0.5
sI4044
F0.0
sI4048
F0.156905298045
sI4050
F0.49923318098558433
sI4051
F0.55
sI4053
F0.55
sI4055
F0.5
sI4057
F0.5152257899864596
sI4059
F0.5010945302578749
sI4061
F0.36450000000000005
sI4064
F0.6355000000000001
sI4065
F0.45
sI4066
F0.4827203964158356
sI4069
F1.0
sI4071
F1.0
sI4077
F0.907348990557408
sI4079
F0.5095000000000001
sI4082
F0.5950000000000001
sI4083
F0.513053165817862
sI4084
F0.7342795
sI4088
F0.9166140915016672
sI4092
F0.48517543444950784
sI4094
F0.405
sI4095
F1.0
sI4100
F1.0
sI4102
F1.0
sI4105
F0.4885758568477481
sI4107
F0.5180500000000001
sI4108
F0.55
sI4113
F0.215233605
sI4114
F0.40775494512748045
sI4116
F0.55
sI4118
F1.0
sI4120
F0.114383962274805
sI4126
F1.0
sI4132
F0.5
sI4134
F0.5
sI4135
F0.5
sI4140
F0.5
sI4141
F0.5
sI4143
F0.5
sI4145
F0.5
sI4147
F0.5
sI4153
F0.5
sI4158
F0.5
sI4159
F0.5279738636415305
sI4161
F0.5
sI4163
F0.5
sI4165
F0.5
sI4167
F0.5
sI4169
F0.5
sI4172
F0.5
sI4173
F0.5
sI4174
F0.49240000348179774
sI4177
F0.5
sI4179
F0.5
sI4180
F0.67195
sI4189
F0.5
sI4195
F0.5
sI4197
F0.5
sI4198
F0.0
sI4212
F0.143610560069805
sI4213
F0.5
sI4215
F0.0
sI4219
F0.36450000000000005
sI4221
F0.494955
sI4223
F0.45
sI4226
F0.0
sI4227
F0.49911271078024216
sI4228
F0.4990471842396207
sI4231
F0.45
sI4234
F0.0
sI4239
F0.49999994837012113
sI4241
F0.24472006353906056
sI4244
F0.0
sI4245
F0.499950031797697
sI4246
F0.4999999999999985
sI4250
F0.49970781686706434
sI4254
F0.49991840311842367
sI4256
F0.4999861268477343
sI4257
F0.152986298324805
sI4258
F0.5
sI4260
F0.0
sI4264
F0.06078832729528464
sI4267
F0.5
sI4270
F0.0
sI4275
F0.44955
sI4276
F0.495
sI4278
F0.0
sI4282
F0.405
sI4297
F0.5
sI4303
F0.45
sI4305
F0.5
sI4306
F0.0
sI4321
F0.5809352007181023
sI4323
F0.5
sI4324
F0.7342795
sI4329
F0.49642575992601967
sI4330
F0.49123537030965553
sI4332
F0.497617005015139
sI4334
F0.4990603493444792
sI4336
F0.49999992586829306
sI4342
F1.0
sI4375
F0.49499348263825266
sI4377
F0.49462335966479276
sI4378
F0.4963905199783081
sI4383
F0.4787252046574166
sI4384
F0.5
sI4386
F0.5
sI4388
F0.5
sI4390
F0.5
sI4396
F0.4996069070303476
sI4401
F0.48855049537629713
sI4402
F0.5149753452305844
sI4404
F0.4999998387035654
sI4406
F0.49958549999999996
sI4408
F0.32805000000000006
sI4410
F0.49999989705443393
sI4412
F0.49779
sI4415
F0.5005
sI4416
F0.5
sI4417
F0.5
sI4420
F0.32772195
sI4422
F0.5
sI4423
F0.5013635949999999
sI4432
F0.405
sI4438
F0.5
sI4440
F0.5
sI4441
F0.0
sI4455
F0.2861435031363899
sI4456
F0.49995
sI4458
F0.5123762304451414
sI4460
F0.5036502008286787
sI4462
F0.5
sI4464
F0.5
sI4466
F0.5
sI4469
F0.5945511811153301
sI4470
F0.5
sI4471
F0.5
sI4474
F0.4995
sI4476
F0.4997791946243978
sI4477
F0.5191741261
sI4482
F0.495765
sI4484
F0.405
sI4487
F0.4642205500620207
sI4488
F0.45
sI4489
F0.5
sI4493
F0.5
sI4497
F0.5
sI4499
F0.5
sI4500
F0.45
sI4501
F0.5
sI4503
F0.507644409178055
sI4505
F0.45
sI4507
F0.5
sI4510
F0.45
sI4512
F0.43787946532138644
sI4513
F0.4905
sI4518
F0.156905298045
sI4519
F0.5
sI4521
F0.3695598100898187
sI4523
F0.29524500000000004
sI4525
F0.5
sI4531
F0.45
sI4540
F0.45
sI4546
F0.20681617005000003
sI4548
F0.29524500000000004
sI4549
F0.0
sI4564
F0.05305177663208337
sI4566
F0.4973466769122928
sI4567
F0.495
sI4572
F0.4975352036529153
sI4573
F0.55
sI4575
F0.4962305760194353
sI4577
F0.5248861550971766
sI4579
F1.0
sI4585
F0.45
sI4617
F0.38017267782480885
sI4618
F0.5211649943083357
sI4620
F0.5
sI4622
F0.5
sI4624
F0.5
sI4626
F0.5014
sI4628
F0.5
sI4631
F0.5
sI4632
F0.5
sI4633
F0.5
sI4636
F0.5
sI4638
F0.5
sI4639
F0.5
sI4644
F0.5
sI4646
F0.45
sI4649
F0.5005
sI4650
F0.5
sI4651
F0.5
sI4655
F0.5
sI4659
F0.5
sI4661
F0.5
sI4662
F0.45
sI4663
F0.495
sI4665
F0.5
sI4667
F0.5
sI4669
F0.45
sI4672
F0.4995
sI4674
F0.499995
sI4675
F0.49995
sI4680
F0.45
sI4681
F0.495
sI4683
F0.5
sI4685
F0.5
sI4687
F0.5
sI4693
F0.4995
sI4698
F0.21045925925402142
sI4700
F0.18321162754500003
sI4703
F0.5177643614312205
sI4704
F0.1773002682405
sI4705
F0.5
sI4709
F0.495
sI4713
F0.5
sI4715
F0.45
sI4716
F0.17842650620895
sI4717
F0.495
sI4719
F0.46143417602406483
sI4721
F0.405
sI4723
F0.45
sI4727
F0.0
sI4731
F0.0
sI4742
F0.0
sI4743
F0.0
sI4748
F0.0
sI4750
F0.0
sI4752
F0.18869448563091423
sI4753
F0.5058596354721314
sI4755
F0.5079984648980025
sI4757
F0.5305979646420356
sI4759
F0.45
sI4761
F0.14633715839177575
sI4763
F0.10681535628085236
sI4766
F0.67195
sI4767
F0.08338590849833284
sI4768
F0.5
sI4771
F0.405
sI4773
F0.449366800541141
sI4774
F0.4447027529911425
sI4780
F0.55854908443678
sI4782
F0.498266984845
sI4783
F0.5243101727712015
sI4788
F0.36450000000000005
sI4789
F0.885616037725195
sI4791
F0.5
sI4793
F0.5
sI4795
F1.0
sI4801
F0.5128982456595984
sI4806
F0.5117098951000001
sI4807
F0.8587852317595001
sI4809
F0.509393935
sI4811
F0.505
sI4813
F1.0
sI4815
F0.55
sI4817
F0.5
sI4820
F0.6355000000000001
sI4821
F1.0
sI4825
F0.5
sI4827
F0.5
sI4828
F0.9249526823515004
sI4837
F0.32805000000000006
sI4843
F0.45
sI4845
F0.405
sI4846
F0.0
sI4864
F0.44955
sI4870
F0.5
sI4872
F0.45
sI4873
F0.0
sI4888
F0.32805000000000006
sI4890
F0.499998387035654
sI4891
F0.5
sI4896
F0.4999989705443395
sI4897
F0.5
sI4899
F0.49998970544339527
sI4901
F0.49989705443395266
sI4903
F0.5
sI4909
F0.45
sI4942
F0.5
sI4944
F0.2134259773084802
sI4945
F0.5
sI4950
F0.4995
sI4951
F0.495
sI4953
F0.16438362354598066
sI4955
F0.13554409727848996
sI4957
F0.5
sI4963
F0.5
sI4968
F0.49738499999999997
sI4969
F0.48645
sI4971
F0.5160089242702213
sI4973
F0.46080428244369365
sI4975
F0.45
sI4977
F0.5
sI4979
F0.405
sI4982
F0.44657112698789325
sI4983
F0.5
sI4984
F0.5
sI4987
F0.45
sI4989
F0.5218934562397408
sI4990
F0.6355000000000001
sI4999
F0.45
sI5005
F0.5
sI5007
F0.12709329141645
sI5008
F0.0
sI5053
F0.5
sI5059
F0.405
sI5061
F0.45
sI5062
F0.0
sI5103
F0.49115612776332285
sI5104
F0.49995
sI5106
F0.49999999971803955
sI5108
F0.499995
sI5110
F0.5
sI5112
F0.5
sI5114
F0.45
sI5117
F0.5
sI5118
F0.5
sI5119
F0.5
sI5122
F0.5
sI5124
F0.5
sI5125
F0.4950943827443398
sI5130
F0.4740185414312018
sI5132
F0.4478242379954329
sI5135
F0.500345245
sI5136
F0.45
sI5137
F0.0
sI5141
F0.5079082694499999
sI5145
F0.5
sI5147
F0.45
sI5148
F0.405
sI5149
F0.0
sI5151
F0.5
sI5153
F0.5
sI5158
F0.4995
sI5160
F0.5
sI5161
F0.5
sI5166
F0.5
sI5167
F0.5
sI5169
F0.5
sI5171
F0.5
sI5173
F0.5
sI5179
F0.49811205652975793
sI5184
F0.5
sI5186
F0.45
sI5189
F0.4698984955214906
sI5190
F0.5
sI5191
F0.5
sI5195
F0.0
sI5199
F0.0
sI5202
F0.5
sI5203
F0.5
sI5205
F0.507738294681475
sI5207
F0.46698396381421864
sI5209
F0.5
sI5213
F0.39088371922875786
sI5217
F0.5
sI5219
F0.32805000000000006
sI5228
F0.0
sI5229
F0.5
sI5231
F0.32805000000000006
sI5234
F0.4641872111779634
sI5235
F0.5
sI5236
F0.0
sI5238
F0.5
sI5239
F0.495
sI5241
F0.49621038461835254
sI5243
F0.405
sI5245
F0.5
sI5247
F0.0
sI5252
F0.0
sI5254
F0.0
sI5257
F0.5
sI5259
F0.4941350389391639
sI5260
F0.49775646796256046
sI5266
F0.45
sI5268
F0.5031276228423698
sI5269
F0.5
sI5274
F0.5068450000000001
sI5275
F0.5
sI5277
F0.49185
sI5279
F0.4995
sI5281
F1.0
sI5287
F0.32805000000000006
sI5292
F0.2657205
sI5293
F0.0
sI5295
F0.5
sI5297
F0.505
sI5301
F0.55
sI5303
F0.5564764000000001
sI5306
F0.6355000000000001
sI5307
F1.0
sI5313
F0.5
sI5314
F0.0
sI5323
F0.5
sI5329
F0.5
sI5331
F0.5
sI5332
F0.0
sI5346
F0.5035463017944914
sI5348
F0.5
sI5351
F0.5
sI5352
F0.5
sI5353
F0.5
sI5357
F0.5
sI5361
F0.5
sI5363
F0.5
sI5364
F0.5
sI5365
F0.5
sI5367
F0.5
sI5369
F0.5
sI5371
F0.5
sI5375
F0.5099182318
sI5379
F0.5
sI5381
F0.45
sI5390
F0.5
sI5391
F0.5
sI5393
F0.45
sI5396
F0.5
sI5397
F0.5
sI5398
F0.0
sI5400
F0.5
sI5401
F0.5
sI5403
F0.5
sI5405
F0.5
sI5407
F0.5
sI5409
F0.5
sI5411
F0.5
sI5414
F0.5
sI5415
F0.5
sI5416
F0.5
sI5419
F0.5
sI5421
F0.5
sI5422
F0.49997115366178213
sI5429
F0.5
sI5433
F0.495
sI5435
F0.5
sI5444
F0.0
sI5445
F0.49995
sI5447
F0.5
sI5450
F0.4766154411518385
sI5451
F0.5
sI5452
F0.5
sI5462
F0.0
sI5474
F0.0
sI5478
F0.0
sI5481
F0.49540988907343825
sI5483
F0.45
sI5486
F0.4721227926149034
sI5487
F0.45
sI5488
F0.5
sI5492
F0.0
sI5496
F0.0
sI5499
F0.49909889073438274
sI5500
F0.5
sI5502
F0.4922247920112278
sI5504
F0.49168969120337247
sI5506
F0.45
sI5508
F0.5410987853931319
sI5509
F0.8970544339526756
sI5511
F0.5150319685715002
sI5513
F0.5054358954426693
sI5515
F1.0
sI5517
F0.9392116727047154
sI5519
F0.45
sI5522
F0.9249526823515004
sI5523
F1.0
sI5527
F0.45
sI5529
F0.49785525357957816
sI5530
F0.4999785409141513
sI5535
F0.9166140915016672
sI5537
F0.600356368
sI5540
F0.907348990557408
sI5541
F1.0
sI5546
F0.7847663949999999
sI5552
F1.0
sI5553
F0.405
sI5554
F0.0
sI5556
F0.4962999430591688
sI5558
F0.49852175483032557
sI5563
F0.4967802331552524
sI5565
F0.46658659756500004
sI5566
F0.4735173315525237
sI5571
F0.405
sI5572
F0.5
sI5574
F0.40014850095
sI5576
F0.2657205
sI5578
F1.0
sI5584
F0.4999985193309665
sI5590
F0.5
sI5592
F0.5
sI5593
F0.495
sI5598
F0.5
sI5599
F0.5
sI5601
F0.5
sI5603
F0.45
sI5605
F0.5
sI5611
F0.45
sI5616
F0.405
sI5617
F0.0
sI5619
F0.5
sI5621
F0.5
sI5625
F0.5
sI5627
F0.405
sI5630
F0.49897054433952676
sI5631
F0.5
sI5632
F0.0
sI5637
F0.5
sI5638
F0.0
sI5647
F0.5
sI5653
F0.5
sI5655
F0.5
sI5656
F0.0
sI5670
F0.5
sI5671
F0.5
sI5673
F0.4956004738023276
sI5675
F0.2657205
sI5677
F0.5
sI5679
F0.0
sI5684
F0.0
sI5686
F0.0
sI5689
F0.5
sI5691
F0.500120108395727
sI5692
F0.5950000000000001
sI5697
F0.5
sI5699
F0.32805000000000006
sI5702
F0.449816396114226
sI5703
F0.5
sI5704
F0.0
sI5708
F0.0
sI5712
F0.0
sI5715
F0.5
sI5716
F0.0
sI5718
F0.5950000000000001
sI5720
F0.4838744822228116
sI5725
F0.5
sI5727
F0.45
sI5728
F0.5
sI5734
F0.0
sI5736
F0.0
sI5746
F0.45
sI5755
F0.45
sI5761
F0.45
sI5763
F0.45
sI5764
F0.0
sI5781
F0.45
sI5782
F0.0
sI5787
F0.23914845
sI5788
F0.0
sI5790
F0.5
sI5792
F0.490734899052927
sI5836
F0.32805000000000006
sI5842
F0.45
sI5844
F0.5
sI5845
F0.0
sI5860
F0.5398173823802008
sI5862
F0.499995
sI5863
F0.5950000000000001
sI5868
F0.4999955
sI5869
F0.5950000000000001
sI5871
F0.5
sI5873
F0.5
sI5875
F0.5
sI5881
F0.5290255
sI5914
F0.29864845
sI5916
F0.6058381144827713
sI5917
F0.9507614548908194
sI5922
F0.48830173649999997
sI5923
F0.5
sI5925
F0.9788044208623918
sI5927
F0.6983407931342773
sI5929
F0.5
sI5935
F0.20064554955000005
sI5940
F0.09828854510918056
sI5941
F0.5950000000000001
sI5943
F0.9809239787761527
sI5945
F0.2657205
sI5947
F0.1937102445
sI5949
F0.5
sI5951
F0.42612897554999996
sI5954
F0.8062897554999999
sI5955
F0.5
sI5956
F0.5
sI5959
F0.1937102445
sI5961
F0.45
sI5962
F0.5950000000000001
sI5971
F0.5
sI5977
F0.11182832364809203
sI5979
F0.29414845
sI5980
F0.0
sI6025
F0.45
sI6031
F0.055256589511413746
sI6033
F0.45
sI6034
F0.0
sI6076
F0.5135500000000001
sI6078
F0.5
sI6079
F0.55
sI6084
F0.405
sI6085
F0.55
sI6087
F0.5
sI6089
F0.5
sI6091
F0.5
sI6097
F0.505
sI6102
F0.45
sI6103
F0.55
sI6105
F0.5
sI6107
F0.5
sI6109
F0.45
sI6111
F0.5
sI6113
F0.5
sI6116
F0.5
sI6117
F0.5
sI6118
F0.5
sI6121
F0.5
sI6123
F0.5
sI6124
F0.55
sI6133
F0.5
sI6139
F0.5
sI6141
F0.5
sI6142
F0.0
sI6156
F0.1567427028182294
sI6157
F0.55
sI6159
F0.9324574141163504
sI6161
F0.46842795
sI6163
F0.5
sI6165
F0.5
sI6167
F0.5
sI6170
F0.8062897554999999
sI6171
F0.5
sI6172
F0.5
sI6175
F0.5
sI6177
F0.405
sI6178
F0.55
sI6183
F0.0
sI6188
F0.0
sI6190
F0.0
sI6194
F0.0
sI6198
F0.0
sI6202
F0.0
sI6204
F0.0
sI6211
F0.32805000000000006
sI6213
F0.5095000000000001
sI6214
F0.55
sI6219
F0.13084285721210473
sI6220
F0.6355000000000001
sI6222
F0.5950000000000001
sI6224
F1.0
sI6226
F0.45
sI6232
F0.32805000000000006
sI6241
F0.45
sI6247
F0.32805000000000006
sI6249
F0.4545
sI6250
F0.0
sI6265
F0.5
sI6267
F0.5
sI6268
F0.5
sI6273
F0.405
sI6274
F0.5
sI6276
F0.55
sI6278
F0.5
sI6280
F1.0
sI6286
F1.0
sI6349
F0.405
sI6355
F0.45
sI6357
F0.5
sI6358
F0.0
sI6403
F0.36450000000000005
sI6409
F0.45
sI6411
F0.12709329141645
sI6412
F0.0
sI6427
F0.37333751314984803
sI6429
F0.5321799070151367
sI6430
F0.9324574141163504
sI6435
F0.5575288974758925
sI6436
F0.9641051006154073
sI6438
F0.9324574141163504
sI6440
F0.4927325277248818
sI6442
F0.2657205
sI6448
F0.405
sI6561
F0.6014478155361896
sI6563
F0.48563403911302283
sI6566
F0.50063715
sI6567
F0.48717660366979687
sI6568
F0.5
sI6572
F0.45642155334102885
sI6576
F0.4638805103410589
sI6578
F0.36450000000000005
sI6579
F0.492274565073809
sI6580
F0.5
sI6582
F0.5014873806992999
sI6584
F0.5
sI6586
F0.5
sI6590
F0.5003541479657081
sI6594
F0.5115744022349616
sI6596
F0.5
sI6605
F0.5
sI6606
F0.5037760475549999
sI6608
F0.505
sI6611
F0.49997305788512036
sI6612
F0.505
sI6613
F0.5
sI6615
F0.49933241147600327
sI6616
F0.5291873850025423
sI6618
F0.5004145
sI6620
F0.5027309999999999
sI6622
F0.405
sI6624
F0.495
sI6626
F0.405
sI6629
F0.55
sI6630
F0.40905
sI6631
F0.5
sI6634
F0.405
sI6636
F0.5
sI6637
F0.5
sI6644
F0.5044498903994643
sI6648
F0.4905
sI6650
F0.5
sI6659
F0.5
sI6660
F0.504575834265
sI6662
F0.5063254504901996
sI6665
F0.4898410990019954
sI6666
F0.45
sI6667
F0.0
sI6677
F0.5
sI6689
F0.55
sI6693
F0.5
sI6695
F1.0
sI6696
F0.49195
sI6698
F0.505
sI6701
F0.5
sI6702
F0.45
sI6703
F0.0
sI6707
F0.55
sI6711
F0.495
sI6713
F0.5
sI6714
F0.45
sI6715
F0.0
sI6717
F0.5
sI6719
F0.45
sI6723
F0.610090517372603
sI6724
F0.6182202422533911
sI6726
F0.6227604077810646
sI6728
F0.4964489505437092
sI6730
F0.4979512106679707
sI6732
F0.6504357018688055
sI6734
F0.14787646354885503
sI6737
F0.5430531375327778
sI6738
F0.2707691895
sI6739
F0.9166140915016672
sI6742
F0.492580198700737
sI6744
F0.5054254788978163
sI6745
F0.9452905054342439
sI6750
F0.6432110288583811
sI6752
F0.5035414796570805
sI6755
F0.6284719430920603
sI6756
F0.5196342458132932
sI6757
F0.9392116727047154
sI6761
F0.4789558362250004
sI6765
F0.9709251314984799
sI6767
F0.405
sI6768
F0.47405873282588173
sI6769
F0.67195
sI6771
F0.87290670858355
sI6773
F0.49288258339487523
sI6775
F0.5
sI6778
F0.7407428758589312
sI6780
F0.6467531411518405
sI6781
F0.9392116727047154
sI6786
F0.29524500000000004
sI6787
F0.9249526823515004
sI6789
F0.9452905054342439
sI6791
F0.405
sI6793
F0.36450000000000005
sI6799
F0.5095000000000001
sI6806
F0.49195
sI6810
F0.5
sI6812
F0.5
sI6821
F0.0
sI6822
F0.5
sI6824
F0.505
sI6827
F0.5
sI6828
F0.5
sI6829
F0.5
sI6839
F0.5
sI6851
F0.5
sI6855
F0.5
sI6857
F1.0
sI6858
F0.500005
sI6860
F0.5
sI6863
F0.5
sI6864
F0.5
sI6865
F0.5
sI6869
F0.0
sI6873
F0.0
sI6876
F0.50005
sI6877
F0.5
sI6879
F0.5
sI6881
F0.5
sI6883
F0.5
sI6893
F0.5
sI6905
F0.55
sI6909
F0.5
sI6911
F1.0
sI6941
F0.5950000000000001
sI6945
F0.5
sI6947
F0.5
sI6956
F0.0
sI6957
F0.542839236263304
sI6959
F0.6035447716038551
sI6962
F0.704755
sI6963
F0.405
sI6964
F0.0
sI6966
F0.5961358170668009
sI6968
F0.29524500000000004
sI6971
F0.5034897968999575
sI6972
F0.2707691895
sI6973
F0.55
sI6977
F0.0
sI6981
F0.0
sI6984
F0.5561909656954542
sI6985
F0.907348990557408
sI6987
F0.9324574141163504
sI6989
F0.5273856868490907
sI6991
F0.505
sI6995
F0.5921466006653081
sI6999
F0.9764493565137687
sI7001
F0.405
sI7010
F0.0
sI7011
F0.9249526823515004
sI7013
F0.6719537850103218
sI7016
F0.7847663949999999
sI7017
F0.505
sI7018
F0.55
sI7020
F0.32805000000000006
sI7021
F0.5329988883458264
sI7023
F0.5232630927021517
sI7025
F0.17044402324049998
sI7027
F0.41878489905574084
sI7029
F0.0
sI7034
F0.0
sI7036
F0.0
sI7039
F0.5281709887179705
sI7041
F0.5097692094666386
sI7042
F0.9392116727047154
sI7047
F0.4927416311954152
sI7048
F0.5
sI7050
F0.5005
sI7052
F0.5
sI7054
F0.5
sI7056
F0.5
sI7058
F0.41534532256256423
sI7061
F0.5069348848778825
sI7062
F0.4372445465364904
sI7063
F0.5
sI7066
F0.5
sI7068
F0.5
sI7069
F0.5
sI7074
F0.5
sI7076
F0.499995
sI7079
F0.5
sI7080
F0.5
sI7081
F0.5
sI7085
F0.4999995234052734
sI7089
F0.5020279138875715
sI7091
F0.4999971126037974
sI7092
F0.5
sI7093
F0.495
sI7095
F0.5
sI7097
F0.49982396308205906
sI7099
F0.5
sI7102
F0.405
sI7104
F0.5
sI7105
F0.5
sI7110
F0.5
sI7111
F0.5
sI7113
F0.5
sI7115
F0.5
sI7117
F0.5
sI7123
F0.5
sI7128
F0.4921854194562291
sI7130
F0.4913886043368945
sI7133
F0.494991607754687
sI7134
F0.405
sI7135
F0.0
sI7139
F0.5
sI7143
F0.5
sI7145
F0.5
sI7146
F0.45
sI7147
F0.0
sI7149
F0.5
sI7151
F0.405
sI7157
F0.5160668596917096
sI7161
F0.5
sI7163
F0.5363895783483732
sI7172
F0.498750461166115
sI7173
F0.4912980680607343
sI7175
F0.5039606625466079
sI7178
F0.4929518060734212
sI7179
F0.45
sI7180
F0.0
sI7182
F0.45
sI7183
F0.0
sI7185
F0.5
sI7187
F0.45
sI7191
F0.5
sI7193
F0.5
sI7196
F0.5
sI7197
F0.5
sI7198
F0.0
sI7203
F0.5
sI7204
F0.0
sI7210
F0.5233073744725563
sI7212
F0.5044679054848323
sI7213
F0.8970544339526756
sI7218
F0.7214902912468104
sI7219
F0.9392116727047154
sI7221
F0.8970544339526756
sI7223
F0.5229504278199686
sI7225
F0.505
sI7231
F0.505
sI7236
F0.48954088972565
sI7237
F0.5046462944308588
sI7239
F0.5009693312899768
sI7241
F0.4876717717873152
sI7243
F0.30909600000000004
sI7245
F0.5581961877090156
sI7247
F0.4769135310575355
sI7250
F0.49999997728086265
sI7251
F0.5203532024782868
sI7252
F0.8587852317595001
sI7255
F0.2657205
sI7257
F0.46767007828377005
sI7258
F0.6355000000000001
sI7267
F1.0
sI7273
F1.0
sI7275
F1.0
sI7292
F0.5
sI7296
F0.495
sI7298
F0.45
sI7307
F0.5
sI7308
F0.4802770617762271
sI7310
F0.405
sI7313
F0.49998970544339527
sI7314
F0.405
sI7315
F0.5
sI7325
F0.5
sI7337
F0.5
sI7341
F0.55
sI7343
F1.0
sI7344
F0.5
sI7346
F0.45
sI7349
F0.490905
sI7350
F0.5
sI7351
F0.5
sI7355
F0.5
sI7359
F0.5
sI7361
F0.5
sI7362
F0.405
sI7363
F0.5
sI7365
F0.5
sI7367
F0.45
sI7369
F0.5
sI7379
F0.5
sI7391
F0.5950000000000001
sI7395
F0.5
sI7397
F1.0
sI7427
F0.5
sI7431
F0.5
sI7433
F0.5
sI7442
F0.0
sI7443
F0.5
sI7445
F0.5
sI7448
F0.5
sI7449
F0.5
sI7450
F0.0
sI7452
F0.6077267222465177
sI7454
F0.1937102445
sI7457
F0.49265923923990074
sI7458
F0.09265100944259205
sI7459
F0.5
sI7463
F0.44835286049999995
sI7467
F0.5950000000000001
sI7469
F0.36450000000000005
sI7470
F0.20681617004999997
sI7471
F0.4149136426779899
sI7473
F0.49997444111565903
sI7475
F0.2657205
sI7477
F0.36450000000000005
sI7481
F0.552017440652731
sI7485
F0.9738326183486319
sI7487
F0.259783605
sI7496
F0.55
sI7497
F0.39583588675950004
sI7499
F0.3176250895
sI7502
F0.4526830240624859
sI7503
F0.29524500000000004
sI7504
F0.0
sI7506
F0.216405298045
sI7507
F0.907348990557408
sI7509
F0.9556853094017375
sI7511
F0.36450000000000005
sI7513
F0.5
sI7515
F0.5950000000000001
sI7517
F0.36450000000000005
sI7520
F0.55
sI7521
F0.5
sI7522
F0.5
sI7525
F0.3351361871533649
sI7527
F0.1412147682405
sI7528
F0.87290670858355
sI7541
F0.5
sI7553
F0.5
sI7557
F0.55
sI7559
F1.0
sI7589
F0.5
sI7593
F0.5
sI7595
F0.5
sI7604
F0.0
sI7605
F0.5
sI7607
F0.5
sI7610
F0.5
sI7611
F0.5
sI7612
F0.5
sI7676
F0.5
sI7688
F0.704755
sI7692
F0.704755
sI7694
F1.0
sI7697
F0.386301752846145
sI7701
F0.9676945905538666
sI7703
F0.29524500000000004
sI7712
F0.0
sI7713
F0.5331846871845045
sI7715
F0.29524500000000004
sI7718
F0.4838402339804012
sI7719
F0.2657205
sI7720
F0.5
sI7730
F0.5
sI7742
F0.7847663949999999
sI7746
F0.55
sI7748
F1.0
sI7749
F0.38805906730603046
sI7751
F0.29524500000000004
sI7754
F0.40016948094425914
sI7755
F0.32805000000000006
sI7756
F0.9166140915016672
sI7760
F0.0
sI7764
F0.0
sI7767
F0.30622049999999973
sI7768
F0.49998440950589806
sI7770
F0.49999999999999933
sI7772
F0.023550643486231218
sI7774
F0.23914845
sI7776
F0.5
sI7778
F0.5
sI7781
F0.5
sI7782
F0.5
sI7783
F0.5
sI7787
F0.33695982715512296
sI7791
F0.3742587268954042
sI7793
F0.2657205
sI7794
F0.45
sI7795
F0.5
sI7797
F0.5
sI7799
F0.5
sI7801
F0.5
sI7805
F0.5
sI7809
F0.5
sI7811
F0.5
sI7820
F0.5
sI7821
F0.5
sI7823
F0.5
sI7826
F0.49823963082059075
sI7827
F0.5
sI7828
F0.0
sI7830
F0.5
sI7831
F0.5
sI7833
F0.5
sI7835
F0.45
sI7837
F0.5
sI7839
F0.5
sI7841
F0.23914845
sI7844
F0.5
sI7845
F0.29524500000000004
sI7846
F0.5
sI7849
F0.5
sI7851
F0.5
sI7852
F0.5
sI7859
F0.5
sI7863
F0.5
sI7865
F0.5
sI7874
F0.0
sI7875
F0.49589999999999995
sI7877
F0.5
sI7880
F0.5
sI7881
F0.4545
sI7882
F0.0
sI7892
F0.67195
sI7904
F0.6355000000000001
sI7908
F0.55
sI7910
F1.0
sI7911
F0.5
sI7913
F0.5
sI7916
F0.5
sI7917
F0.5
sI7918
F0.0
sI7922
F0.0
sI7926
F0.0
sI7929
F0.5
sI7930
F0.0
sI7932
F0.5
sI7934
F0.5
sI7938
F0.1937102445
sI7939
F0.9166140915016672
sI7941
F0.8970544339526756
sI7943
F0.45
sI7945
F0.5
sI7947
F0.9392116727047154
sI7949
F0.2657205
sI7952
F0.9507614548908194
sI7953
F0.29524500000000004
sI7954
F0.55
sI7957
F0.32805000000000006
sI7959
F0.20963322659789999
sI7960
F0.55
sI7965
F0.4491905641675112
sI7967
F0.3730499855882631
sI7970
F0.4757083197434559
sI7971
F0.36450000000000005
sI7972
F0.0
sI7976
F0.4999999123360436
sI7980
F0.87290670858355
sI7982
F0.17433922005
sI7983
F0.29524500000000004
sI7984
F0.0
sI7986
F0.352940065479
sI7988
F0.1937102445
sI7993
F1.0
sI7995
F1.0
sI8001
F1.0
sI8006
F1.0
sI8008
F1.0
sI8014
F1.0
sI8019
F0.4872808109355019
sI8020
F0.5
sI8022
F0.50000455
sI8024
F0.5
sI8026
F0.5
sI8028
F0.4165451155229447
sI8030
F0.36450000000000005
sI8033
F0.5
sI8034
F0.36450000000000005
sI8035
F0.46802204999999997
sI8038
F0.5
sI8040
F0.5
sI8041
F0.55
sI8046
F0.5048968386733267
sI8048
F0.50005
sI8051
F0.5
sI8052
F0.5
sI8053
F0.5014
sI8057
F0.5
sI8061
F0.5
sI8063
F0.5
sI8064
F0.5
sI8065
F0.6355000000000001
sI8067
F0.5
sI8069
F0.49553774999999994
sI8071
F0.5
sI8074
F0.4545
sI8076
F0.5
sI8077
F0.5
sI8082
F0.36450000000000005
sI8083
F0.495
sI8085
F0.5
sI8087
F1.0
sI8089
F0.405
sI8095
F0.5
sI8100
F0.5240505088369197
sI8102
F0.5124655515261337
sI8105
F0.9738326183486319
sI8106
F0.15103205126145003
sI8107
F0.0
sI8111
F0.9809239787761527
sI8115
F0.48195
sI8117
F0.45
sI8118
F0.07773419692233474
sI8119
F0.0
sI8121
F0.5
sI8123
F0.405
sI8129
F0.49999837382076234
sI8133
F0.5
sI8135
F0.08923689374811049
sI8144
F0.5
sI8145
F0.5
sI8147
F0.05204726909712823
sI8150
F0.4402431
sI8151
F0.5
sI8152
F0.0
sI8154
F0.13725614588749827
sI8155
F0.0
sI8157
F0.5
sI8159
F1.0
sI8163
F0.5950000000000001
sI8165
F1.0
sI8169
F0.45
sI8170
F0.0
sI8175
F0.5
sI8176
F0.0
sI8182
F0.49565661395500005
sI8184
F0.47329530502995
sI8185
F0.5950000000000001
sI8190
F0.19351496520251954
sI8191
F0.44540041049999995
sI8193
F0.414213677505
sI8195
F0.23914845
sI8197
F0.405
sI8203
F1.0
sI8208
F0.5489683867332672
sI8209
F0.9828315808985374
sI8211
F0.87290670858355
sI8213
F0.612508132307345
sI8215
F0.5585103100000001
sI8217
F0.4999960129745518
sI8219
F0.32805000000000006
sI8222
F0.49999932453752394
sI8223
F0.2657205
sI8224
F0.9788044208623918
sI8227
F1.0
sI8229
F1.0
sI8239
F0.5
sI8245
F0.29524500000000004
sI8247
F0.32805000000000006
sI8248
F0.0
sI8262
F0.5
sI8264
F0.45
sI8267
F0.5
sI8268
F0.5
sI8269
F0.5
sI8273
F0.0
sI8277
F0.0
sI8280
F0.5
sI8281
F0.5
sI8283
F0.5
sI8285
F0.5
sI8287
F0.5
sI8291
F0.5
sI8295
F0.5
sI8297
F0.5
sI8306
F0.0
sI8307
F0.5
sI8309
F0.5
sI8312
F0.5
sI8313
F0.5
sI8314
F0.5
sI8316
F0.5
sI8317
F0.5
sI8319
F0.5
sI8321
F1.0
sI8323
F0.5
sI8325
F0.0
sI8332
F0.0
sI8335
F0.5
sI8337
F0.5
sI8338
F0.5
sI8345
F0.9860935805278153
sI8349
F0.49589999999999995
sI8351
F0.405
sI8360
F0.0
sI8361
F0.495
sI8363
F0.46
sI8366
F0.55
sI8367
F0.4545
sI8368
F0.0
sI8378
F0.0
sI8390
F0.0
sI8394
F0.0
sI8397
F0.885616037725195
sI8399
F1.0
sI8403
F0.5
sI8404
F0.0
sI8412
F0.0
sI8415
F0.37755000000000005
sI8416
F0.0
sI8418
F0.55
sI8420
F1.0
sI8424
F0.5095000000000001
sI8425
F0.55
sI8427
F0.5950000000000001
sI8429
F0.45
sI8431
F0.5
sI8433
F0.0
sI8438
F0.0
sI8440
F0.0
sI8443
F1.0
sI8445
F1.0
sI8451
F0.87290670858355
sI8453
F0.45
sI8456
F0.9676945905538666
sI8457
F0.5
sI8458
F0.7608515499999999
sI8462
F0.0
sI8466
F0.0
sI8469
F1.0
sI8474
F1.0
sI8476
F1.0
sI8479
F0.40905
sI8481
F0.24190524449999998
sI8482
F0.5950000000000001
sI8488
F0.0
sI8490
F0.0
sI8500
F1.0
sI8506
F0.5
sI8508
F0.5
sI8509
F0.5
sI8514
F0.42085964073344556
sI8515
F0.3228903173483516
sI8517
F0.49995
sI8519
F0.5
sI8521
F0.2657205
sI8527
F0.5
sI8532
F0.5
sI8533
F0.5180264464025388
sI8535
F0.5005
sI8537
F0.5
sI8539
F0.5
sI8541
F0.49995496620088903
sI8543
F0.49999791272104105
sI8546
F0.5
sI8547
F0.4995
sI8548
F0.49979679048804004
sI8551
F0.5
sI8553
F0.5
sI8554
F0.6355000000000001
sI8563
F0.5
sI8569
F0.2657205
sI8571
F0.5
sI8572
F0.0
sI8586
F0.1223882632877895
sI8587
F0.0
sI8589
F0.5
sI8591
F0.3795255
sI8595
F0.5018499999999999
sI8597
F0.5221
sI8600
F0.6355000000000001
sI8601
F0.405
sI8602
F0.0
sI8607
F0.5
sI8608
F0.0
sI8613
F0.4998728647150174
sI8615
F0.49999551694314237
sI8618
F0.4999999996163792
sI8619
F0.2657205
sI8620
F0.0
sI8624
F0.4999723477481229
sI8628
F0.4957730018279198
sI8630
F0.49999902577972466
sI8631
F0.36450000000000005
sI8632
F0.0
sI8634
F0.5
sI8636
F0.17433922005
sI8643
F0.5
sI8644
F0.0
sI8649
F0.5
sI8650
F0.0
sI8652
F0.5
sI8654
F1.0
sI8671
F0.5
sI8677
F0.23914845
sI8679
F0.29524500000000004
sI8680
F0.0
sI8695
F0.5012215817082802
sI8697
F0.5001542530692313
sI8698
F0.9249526823515004
sI8703
F0.49999969334605315
sI8704
F0.4999999753805172
sI8706
F0.49999999999969424
sI8708
F0.49999999999999956
sI8710
F0.49999999932781425
sI8716
F1.0
sI8750
F0.5005
sI8754
F0.499905
sI8756
F0.5
sI8765
F0.5
sI8766
F0.4906845
sI8768
F0.45
sI8771
F0.5
sI8772
F0.45
sI8773
F0.5
sI8783
F0.5
sI8795
F0.55
sI8799
F0.5
sI8801
F1.0
sI8802
F0.5
sI8804
F0.5
sI8807
F0.5
sI8808
F0.5
sI8809
F0.5
sI8813
F0.5
sI8817
F0.5
sI8819
F0.5
sI8820
F0.45
sI8821
F0.5
sI8823
F0.5
sI8825
F0.5
sI8827
F0.5
sI8837
F0.5950000000000001
sI8849
F0.55
sI8853
F0.5950000000000001
sI8855
F1.0
sI8885
F0.5
sI8889
F0.5
sI8891
F0.5
sI8900
F0.5
sI8901
F0.5
sI8903
F0.5
sI8906
F0.0
sI8907
F0.5
sI8908
F0.0
sI8910
F0.675129619138938
sI8912
F0.4083850077305732
sI8915
F0.907590150149002
sI8916
F0.32805000000000006
sI8917
F0.4917366749867327
sI8921
F0.451436895
sI8925
F0.47385
sI8927
F0.36450000000000005
sI8928
F0.37755000000000005
sI8929
F0.5950000000000001
sI8931
F0.907348990557408
sI8933
F0.36450000000000005
sI8935
F0.45
sI8939
F0.5467601705247616
sI8943
F0.5006346898629421
sI8945
F0.11296592433342108
sI8954
F0.31479207185372327
sI8955
F0.5
sI8957
F0.45
sI8960
F0.5950000000000001
sI8961
F0.18209329141645
sI8962
F0.55
sI8964
F0.23914845
sI8965
F0.9166140915016672
sI8967
F0.9324574141163504
sI8969
F0.368145
sI8971
F0.45
sI8973
F0.9601167784615637
sI8975
F0.36450000000000005
sI8978
F0.55
sI8979
F0.36450000000000005
sI8980
F0.8970544339526756
sI8983
F0.5
sI8985
F0.5
sI8986
F0.5950000000000001
sI8999
F0.5
sI9011
F0.5
sI9015
F0.5
sI9017
F1.0
sI9047
F0.55
sI9051
F0.5
sI9053
F0.5
sI9062
F0.0
sI9063
F0.5005
sI9065
F0.5
sI9068
F0.5
sI9069
F0.5
sI9070
F0.5
sI9134
F0.5
sI9146
F0.67195
sI9150
F0.67195
sI9152
F1.0
sI9155
F0.3829734272467062
sI9159
F0.42719327100000004
sI9161
F0.32805000000000006
sI9170
F0.0
sI9171
F0.9556853094017375
sI9173
F0.31719600000000003
sI9176
F0.67195
sI9177
F0.32805000000000006
sI9178
F0.5
sI9188
F0.55
sI9200
F0.7342795
sI9204
F0.9556853094017375
sI9206
F1.0
sI9207
F0.44045676228199054
sI9209
F0.29524500000000004
sI9212
F0.55
sI9213
F0.36450000000000005
sI9214
F0.474255
sI9218
F0.0
sI9222
F0.0
sI9225
F0.369490741411635
sI9226
F0.9507614548908194
sI9228
F0.9392116727047154
sI9230
F0.45
sI9232
F0.405
sI9234
F0.495
sI9236
F0.5
sI9239
F0.5
sI9240
F0.5
sI9241
F0.5
sI9245
F0.5001413341465252
sI9249
F0.4940611921176926
sI9251
F0.45
sI9252
F0.45
sI9253
F0.5
sI9255
F0.5
sI9257
F0.5
sI9259
F0.5
sI9263
F0.49995
sI9267
F0.5
sI9269
F0.5
sI9278
F0.4999711260379744
sI9279
F0.5
sI9281
F0.5
sI9284
F0.5
sI9285
F0.5
sI9286
F0.5
sI9288
F0.45
sI9289
F0.5
sI9291
F0.5
sI9293
F0.5
sI9295
F0.5
sI9297
F0.55
sI9299
F0.45
sI9302
F0.5
sI9303
F0.45
sI9304
F0.5
sI9307
F0.5
sI9309
F0.5
sI9310
F0.5
sI9317
F0.46437704999999996
sI9321
F0.5
sI9323
F0.45
sI9332
F0.5
sI9333
F0.5
sI9335
F0.36450000000000005
sI9338
F0.0
sI9339
F0.5
sI9340
F0.0
sI9350
F0.6355000000000001
sI9362
F0.55
sI9366
F0.5
sI9368
F1.0
sI9369
F0.5
sI9371
F0.405
sI9374
F0.0
sI9375
F0.5
sI9376
F0.0
sI9380
F0.5
sI9384
F0.5
sI9386
F0.5
sI9387
F0.5
sI9388
F0.0
sI9390
F0.0
sI9396
F0.36450000000000005
sI9397
F0.87290670858355
sI9399
F0.8970544339526756
sI9401
F0.45
sI9403
F0.45
sI9405
F0.9556853094017375
sI9407
F0.36450000000000005
sI9410
F0.9166140915016672
sI9411
F0.36450000000000005
sI9412
F0.907348990557408
sI9415
F0.45
sI9417
F0.5
sI9418
F0.5
sI9423
F0.5
sI9425
F0.5
sI9428
F0.48535970996532296
sI9429
F0.1161888637646909
sI9430
F0.5
sI9434
F0.4871005389539435
sI9438
F0.4999688350306057
sI9440
F0.08338590849833284
sI9441
F0.5
sI9442
F0.5
sI9444
F0.5950000000000001
sI9446
F0.45
sI9448
F0.5
sI9451
F1.0
sI9453
F1.0
sI9459
F1.0
sI9464
F1.0
sI9466
F1.0
sI9472
F1.0
sI9485
F0.0
sI9497
F0.0
sI9501
F0.0
sI9533
F0.0
sI9537
F0.0
sI9548
F0.0
sI9549
F0.0
sI9554
F0.0
sI9556
F0.0
sI9620
F0.0
sI9632
F0.0
sI9636
F0.0
sI9641
F0.0
sI9645
F0.0
sI9656
F0.0
sI9657
F0.0
sI9662
F0.0
sI9664
F0.0
sI9674
F0.0
sI9686
F0.0
sI9690
F0.0
sI9693
F0.0
sI9698
F0.0
sI9700
F0.0
sI9704
F0.0
sI9708
F0.0
sI9712
F0.0
sI9714
F0.0
sI9782
F0.0
sI9794
F0.0
sI9798
F0.0
sI9890
F0.0
sI9902
F0.0
sI9906
F0.0
sI9938
F0.0
sI9942
F0.0
sI9953
F0.0
sI9954
F0.0
sI9959
F0.0
sI9961
F0.0
sI9965
F0.0
sI9969
F0.0
sI9980
F0.0
sI9981
F0.0
sI9986
F0.0
sI9988
F0.0
sI9998
F0.0
sI10010
F0.0
sI10014
F0.0
sI10017
F0.0
sI10022
F0.0
sI10024
F0.0
sI10028
F0.0
sI10032
F0.0
sI10036
F0.0
sI10038
F0.0
sI10052
F0.0
sI10064
F0.0
sI10068
F0.0
sI10100
F0.0
sI10104
F0.0
sI10115
F0.0
sI10116
F0.0
sI10121
F0.0
sI10123
F0.0
sI10125
F0.0
sI10130
F0.0
sI10132
F0.0
sI10136
F0.0
sI10140
F0.0
sI10144
F0.0
sI10146
F0.0
sI10154
F0.0
sI10158
F0.0
sI10169
F0.0
sI10170
F0.0
sI10175
F0.0
sI10177
F0.0
sI10206
F0.5039434269474806
sI10208
F0.505
sI10211
F0.5
sI10212
F0.49905
sI10213
F0.495
sI10217
F0.55
sI10221
F0.5
sI10223
F0.5
sI10224
F0.5080500000000001
sI10225
F0.55
sI10227
F0.55
sI10229
F0.5
sI10231
F0.5
sI10235
F0.5005
sI10239
F0.5
sI10241
F0.5
sI10250
F0.5
sI10251
F0.55
sI10253
F0.505
sI10256
F0.55
sI10257
F0.5
sI10258
F0.5
sI10260
F0.5
sI10261
F0.5
sI10263
F0.5
sI10265
F1.0
sI10267
F0.5
sI10269
F0.5
sI10271
F1.0
sI10275
F0.5
sI10276
F0.5
sI10279
F0.5
sI10281
F0.5
sI10282
F0.5
sI10289
F0.9828315808985374
sI10293
F0.8642616697943083
sI10295
F0.9116902694099441
sI10304
F0.9392116727047154
sI10305
F0.495
sI10307
F0.5
sI10310
F0.0
sI10311
F0.5
sI10312
F0.0
sI10322
F0.9392116727047154
sI10334
F0.5950000000000001
sI10338
F0.5
sI10340
F1.0
sI10341
F0.5
sI10343
F1.0
sI10347
F0.45
sI10348
F0.0
sI10356
F0.55
sI10358
F1.0
sI10359
F0.405
sI10360
F0.0
sI10362
F0.0
sI10368
F0.6838868587878617
sI10369
F0.9324574141163504
sI10371
F0.8970544339526756
sI10373
F0.9412573421101998
sI10375
F0.49911243293758323
sI10377
F0.5251325998542294
sI10379
F0.405
sI10382
F0.9641051006154073
sI10383
F0.3778338669288312
sI10384
F0.4978386692883115
sI10387
F1.0
sI10389
F1.0
sI10395
F0.9249526823515004
sI10397
F0.6321043196480287
sI10400
F0.9641051006154073
sI10401
F0.5000947213243305
sI10402
F0.9452905054342439
sI10406
F0.49991698556998176
sI10410
F0.49999999999999933
sI10412
F0.004363981784043855
sI10413
F1.0
sI10418
F1.0
sI10420
F1.0
sI10423
F0.5221
sI10425
F0.505
sI10426
F0.5950000000000001
sI10431
F0.3313305
sI10432
F0.5950000000000001
sI10434
F0.55
sI10436
F1.0
sI10438
F0.45
sI10444
F1.0
sI10451
F0.5
sI10455
F0.4905
sI10457
F0.45
sI10466
F0.0
sI10467
F0.55
sI10469
F0.5
sI10472
F0.5
sI10473
F0.5
sI10474
F0.5
sI10484
F0.5
sI10496
F0.5
sI10500
F0.5
sI10502
F1.0
sI10503
F0.55
sI10505
F1.0
sI10509
F0.45
sI10510
F0.5
sI10518
F0.0
sI10521
F0.505
sI10522
F0.5
sI10524
F0.5
sI10526
F1.0
sI10528
F0.5
sI10538
F0.9452905054342439
sI10550
F0.5
sI10554
F0.55
sI10556
F1.0
sI10590
F0.8970544339526756
sI10592
F1.0
sI10602
F0.55
sI10604
F1.0
sI10608
F0.45
sI10609
F0.0
sI10611
F0.907348990557408
sI10613
F0.31924947555
sI10616
F0.9556853094017375
sI10617
F0.32805000000000006
sI10618
F0.6355000000000001
sI10622
F0.0
sI10626
F0.0
sI10629
F1.0
sI10634
F1.0
sI10636
F1.0
sI10640
F0.82566077995
sI10644
F0.9828315808985374
sI10646
F0.32805000000000006
sI10655
F0.0
sI10658
F1.0
sI10662
F1.0
sI10665
F0.3795255
sI10666
F0.55
sI10668
F0.6355000000000001
sI10670
F1.0
sI10672
F0.405
sI10674
F0.0
sI10681
F0.0
sI10684
F1.0
sI10686
F1.0
sI10692
F0.5
sI10693
F0.5
sI10695
F0.5
sI10697
F0.5
sI10699
F0.45
sI10701
F0.5041192874027047
sI10703
F0.5068996086253038
sI10706
F0.55
sI10707
F0.49868304937372165
sI10708
F0.49999565579592664
sI10711
F0.5
sI10713
F0.5
sI10714
F0.5
sI10719
F0.5
sI10721
F0.4995
sI10724
F0.495
sI10725
F0.5
sI10726
F0.5
sI10730
F0.499878065769101
sI10734
F0.5
sI10736
F0.4997112603797441
sI10737
F0.5
sI10738
F0.5
sI10740
F0.5
sI10742
F0.45
sI10744
F0.5
sI10747
F0.5
sI10749
F0.5
sI10750
F0.5
sI10755
F0.5
sI10756
F0.5
sI10758
F0.5
sI10760
F1.0
sI10762
F0.45
sI10768
F0.5
sI10773
F0.5
sI10775
F0.405
sI10778
F0.0
sI10779
F0.45
sI10780
F0.0
sI10784
F0.5950000000000001
sI10788
F0.49703052927374175
sI10790
F0.4999738419649586
sI10791
F0.5
sI10792
F0.0
sI10794
F0.0
sI10802
F0.49999999999999933
sI10806
F0.4999855466294084
sI10808
F0.49999999999999956
sI10817
F0.4999999999999998
sI10818
F0.47657205
sI10820
F0.029074868501520024
sI10823
F0.0
sI10824
F0.215233605
sI10825
F0.0
sI10827
F0.5
sI10828
F0.0
sI10830
F0.0
sI10836
F0.5
sI10838
F1.0
sI10842
F0.45
sI10843
F0.0
sI10849
F0.0
sI10855
F0.5
sI10857
F0.5
sI10858
F0.5
sI10863
F0.5067601079280984
sI10864
F0.907348990557408
sI10866
F0.9166140915016672
sI10868
F0.4999998546553561
sI10870
F0.4999898071260032
sI10876
F1.0
sI10881
F0.5
sI10882
F0.9166140915016672
sI10884
F0.9166140915016672
sI10886
F0.4857675043884342
sI10888
F0.5
sI10890
F0.4999192856415095
sI10892
F0.49999909648081836
sI10895
F0.4999999999999998
sI10896
F0.49999999999999956
sI10897
F0.4999999999999998
sI10900
F1.0
sI10902
F1.0
sI10912
F1.0
sI10918
F1.0
sI10920
F1.0
sI10935
F0.4807912979472844
sI10936
F0.5048773336470584
sI10938
F0.5
sI10940
F0.5012911224486101
sI10942
F0.45
sI10944
F0.43679075848948207
sI10946
F0.36450000000000005
sI10949
F0.5
sI10950
F0.405
sI10951
F0.5
sI10954
F0.405
sI10956
F0.5
sI10957
F0.5156080233571609
sI10962
F0.5
sI10964
F0.5
sI10967
F0.5
sI10968
F0.5
sI10969
F0.5
sI10973
F0.5
sI10977
F0.5
sI10979
F0.5
sI10980
F0.5
sI10981
F0.5
sI10983
F0.5
sI10985
F0.4992771284905574
sI10987
F0.5
sI10990
F0.44955
sI10992
F0.49905
sI10993
F0.4905
sI10998
F0.36450000000000005
sI10999
F0.5
sI11001
F0.5
sI11003
F0.5
sI11005
F0.5
sI11011
F0.45
sI11016
F0.4914
sI11018
F0.4995
sI11021
F0.5323296900032278
sI11022
F0.45
sI11023
F0.0
sI11027
F0.5
sI11031
F0.5
sI11033
F0.5
sI11034
F0.45
sI11035
F0.0
sI11037
F0.48518967061095963
sI11039
F0.47574387717685157
sI11045
F0.495
sI11049
F0.5
sI11051
F0.45
sI11060
F0.5
sI11061
F0.5
sI11063
F0.5
sI11066
F0.47406015925413386
sI11067
F0.45
sI11068
F0.0
sI11070
F0.45
sI11071
F0.0
sI11073
F0.500824839941099
sI11075
F0.5037483994109914
sI11079
F0.5
sI11081
F0.5
sI11084
F0.55
sI11085
F0.45
sI11086
F0.0
sI11091
F0.45
sI11092
F0.0
sI11098
F0.5257599511192866
sI11100
F0.46489022707167865
sI11101
F0.5065770459946357
sI11106
F0.16317879141645
sI11107
F0.55
sI11109
F0.3884828395590001
sI11111
F0.17433922005
sI11113
F1.0
sI11119
F0.5788367173572031
sI11124
F0.6006182204581607
sI11125
F0.87290670858355
sI11127
F0.5457091387638667
sI11129
F0.4944478072676485
sI11131
F1.0
sI11133
F0.8587852317595001
sI11135
F0.45
sI11138
F0.49995727885751834
sI11139
F1.0
sI11143
F0.45
sI11145
F0.5170069602816387
sI11146
F0.907348990557408
sI11155
F0.405
sI11161
F0.45
sI11163
F0.2657205
sI11164
F0.0
sI11178
F0.5
sI11180
F0.45
sI11183
F0.5
sI11184
F0.5
sI11185
F0.5
sI11189
F0.0
sI11193
F0.0
sI11196
F0.5
sI11197
F0.5
sI11199
F0.5
sI11201
F0.5
sI11203
F0.5
sI11207
F0.5
sI11211
F0.5
sI11213
F0.5
sI11222
F0.0
sI11223
F0.5
sI11225
F0.5
sI11228
F0.5
sI11229
F0.5
sI11230
F0.5
sI11232
F0.5
sI11233
F0.5
sI11235
F0.5
sI11237
F0.5
sI11239
F0.5
sI11241
F0.0
sI11246
F0.0
sI11248
F0.0
sI11251
F0.5
sI11253
F0.5
sI11254
F0.495
sI11261
F0.5
sI11265
F0.5
sI11267
F0.5
sI11276
F0.0
sI11277
F0.5
sI11279
F0.5
sI11282
F0.461418234389944
sI11283
F0.5
sI11284
F0.0
sI11294
F0.0
sI11306
F0.0
sI11310
F0.0
sI11313
F0.5
sI11315
F0.5
sI11318
F0.704755
sI11319
F0.5
sI11320
F0.0
sI11324
F0.0
sI11328
F0.0
sI11331
F0.5
sI11332
F0.0
sI11334
F0.420264186232465
sI11336
F0.4671529283827435
sI11340
F0.2657205
sI11341
F0.885616037725195
sI11343
F0.500018995
sI11345
F0.4537670941010611
sI11347
F1.0
sI11349
F0.0
sI11354
F0.0
sI11359
F0.5
sI11361
F0.5758008623537849
sI11362
F0.9166140915016672
sI11367
F0.87290670858355
sI11369
F0.405
sI11372
F0.4861674900161447
sI11373
F1.0
sI11378
F0.0
sI11385
F0.5
sI11386
F0.5
sI11388
F0.9249526823515004
sI11390
F0.48077008602004084
sI11392
F1.0
sI11395
F0.36450000000000005
sI11397
F0.215233605
sI11398
F0.5
sI11404
F0.0
sI11406
F0.0
sI11416
F0.4999958390807492
sI11422
F0.405
sI11424
F0.5
sI11425
F0.5
sI11430
F0.40229604210140824
sI11431
F0.325289118747084
sI11433
F0.495
sI11435
F0.5
sI11437
F0.24771055500000005
sI11443
F0.5
sI11448
F0.5
sI11449
F0.5
sI11451
F0.49998387035654046
sI11453
F0.5
sI11455
F0.5
sI11457
F0.5
sI11459
F0.5
sI11462
F0.5
sI11463
F0.5
sI11464
F0.5
sI11467
F0.45
sI11469
F0.49983870356540466
sI11470
F0.5
sI11479
F0.5
sI11485
F0.23914845
sI11487
F0.5
sI11488
F0.0
sI11502
F0.45
sI11503
F0.0
sI11505
F0.5
sI11507
F0.4932312596650661
sI11511
F0.5
sI11513
F0.5
sI11516
F0.4968530899430796
sI11517
F0.5
sI11518
F0.0
sI11523
F0.44595691657908526
sI11524
F0.0
sI11529
F0.5
sI11531
F0.4995
sI11534
F0.49232209906355023
sI11535
F0.5
sI11536
F0.0
sI11540
F0.495
sI11544
F0.5
sI11546
F0.45
sI11547
F0.45
sI11548
F0.0
sI11550
F0.4874392211049224
sI11552
F0.4861554344802315
sI11559
F0.5
sI11560
F0.0
sI11565
F0.5
sI11566
F0.0
sI11568
F0.5
sI11570
F0.45
sI11587
F0.4645
sI11593
F0.23914845
sI11595
F0.29524500000000004
sI11596
F0.0
sI11611
F0.29524500000000004
sI11613
F0.4237895837013757
sI11614
F0.334100022332535
sI11619
F0.5483803785827482
sI11620
F0.9166140915016672
sI11622
F0.49998319194645924
sI11624
F0.49999905217901686
sI11626
F1.0
sI11632
F0.215233605
sI11664
F0.5
sI11666
F0.5
sI11669
F0.49995
sI11670
F0.5
sI11671
F0.5
sI11675
F0.5
sI11679
F0.5
sI11681
F0.5
sI11682
F0.4496981582631051
sI11683
F0.39062455055653045
sI11685
F0.49983185765581806
sI11687
F0.49990611647320493
sI11689
F0.31522050000000007
sI11693
F0.508992754646446
sI11697
F0.5
sI11699
F0.5
sI11708
F0.5
sI11709
F0.495
sI11711
F0.5
sI11714
F0.49897054433952676
sI11715
F0.45
sI11716
F0.0
sI11718
F0.5
sI11719
F0.5
sI11721
F0.5
sI11723
F0.4995
sI11725
F0.5
sI11727
F0.5
sI11729
F0.5
sI11732
F0.5
sI11733
F0.5
sI11734
F0.5
sI11737
F0.32805000000000006
sI11739
F0.49909106676108445
sI11740
F0.48661551880289583
sI11747
F0.5
sI11751
F0.5
sI11753
F0.5
sI11762
F0.0
sI11763
F0.5202413092
sI11765
F0.5701495240000001
sI11768
F0.473507356432371
sI11769
F0.45
sI11770
F0.0
sI11780
F0.5
sI11792
F0.67195
sI11796
F0.5
sI11798
F1.0
sI11799
F0.5
sI11801
F0.5
sI11804
F0.49248399410991367
sI11805
F0.5
sI11806
F0.0
sI11810
F0.0
sI11814
F0.0
sI11817
F0.5
sI11818
F0.0
sI11820
F0.48217503439944304
sI11822
F0.48305333601513106
sI11826
F0.5958733378856486
sI11827
F0.9392116727047154
sI11829
F0.5391523673723269
sI11831
F0.4943614669226983
sI11833
F1.0
sI11835
F0.9556853094017375
sI11837
F0.36450000000000005
sI11840
F0.4993918926064161
sI11841
F1.0
sI11845
F0.32805000000000006
sI11847
F0.4999923782872044
sI11848
F0.49999353011567316
sI11853
F0.9324574141163504
sI11855
F0.544660969881082
sI11858
F0.49996576415943006
sI11859
F1.0
sI11864
F0.9166140915016672
sI11870
F1.0
sI11871
F0.29524500000000004
sI11872
F0.0
sI11874
F0.4999997292649773
sI11876
F0.49999998517679367
sI11881
F0.514
sI11883
F0.5151437547908311
sI11884
F0.9452905054342439
sI11889
F0.5
sI11890
F0.5950000000000001
sI11892
F0.9676945905538666
sI11894
F0.32805000000000006
sI11896
F1.0
sI11902
F0.4999996557209699
sI11909
F0.5
sI11913
F0.5
sI11915
F0.5
sI11924
F0.0
sI11925
F0.5092483437618827
sI11927
F0.5
sI11930
F0.4999876748264752
sI11931
F0.5
sI11932
F0.55
sI11942
F0.5
sI11954
F0.5
sI11958
F0.5
sI11960
F1.0
sI11961
F0.5
sI11963
F0.5
sI11966
F0.5
sI11967
F0.5
sI11968
F0.5
sI11972
F0.0
sI11976
F0.0
sI11979
F0.5
sI11980
F0.5
sI11982
F0.5
sI11984
F0.4998767482647521
sI11986
F0.5
sI11996
F0.5
sI12008
F0.67195
sI12012
F0.5
sI12014
F1.0
sI12044
F0.5
sI12048
F0.5
sI12050
F0.5
sI12059
F0.0
sI12060
F0.49548890734382767
sI12062
F0.4998890734382769
sI12065
F0.49986513919720466
sI12066
F0.405
sI12067
F0.0
sI12069
F0.9392116727047154
sI12071
F0.29524500000000004
sI12074
F0.49998281779440096
sI12075
F1.0
sI12080
F0.0
sI12087
F0.5279699914411867
sI12088
F0.907348990557408
sI12090
F0.49999895706771325
sI12092
F0.4999986989895383
sI12094
F1.0
sI12098
F0.9324574141163504
sI12104
F1.0
sI12114
F0.9324574141163504
sI12116
F0.4928378502353683
sI12119
F0.4999999999999916
sI12120
F1.0
sI12123
F0.29524500000000004
sI12124
F0.55
sI12126
F0.4999999995662221
sI12128
F0.03230540944613336
sI12130
F1.0
sI12132
F0.0
sI12137
F0.0
sI12142
F0.4999989445448466
sI12144
F0.49999999999999956
sI12145
F0.4999999999999998
sI12150
F0.5
sI12151
F0.5
sI12153
F0.5
sI12155
F0.5
sI12157
F0.5
sI12159
F0.5
sI12161
F0.23914845
sI12164
F0.5
sI12165
F0.29524500000000004
sI12166
F0.55
sI12169
F0.29524500000000004
sI12171
F0.49905
sI12172
F0.4905
sI12177
F0.5
sI12179
F0.5
sI12182
F0.5
sI12183
F0.5
sI12184
F0.0
sI12188
F0.5
sI12192
F0.5
sI12194
F0.5
sI12195
F0.5
sI12196
F0.0
sI12198
F0.4983870356540466
sI12200
F0.4838703565404656
sI12205
F0.5
sI12207
F0.5
sI12208
F0.5
sI12213
F0.5
sI12214
F0.5
sI12216
F0.5
sI12218
F0.5
sI12220
F0.5
sI12226
F0.36450000000000005
sI12231
F0.5
sI12233
F0.5
sI12236
F0.47340030362908686
sI12237
F0.5
sI12238
F0.0
sI12242
F0.0
sI12246
F0.0
sI12249
F0.5
sI12250
F0.0
sI12252
F0.45065043370468383
sI12254
F0.4341521126417619
sI12260
F0.5
sI12264
F0.5
sI12266
F0.5
sI12275
F0.0
sI12276
F0.5
sI12278
F0.5
sI12281
F0.49952249752460165
sI12282
F0.5
sI12283
F0.0
sI12285
F0.5
sI12286
F0.0
sI12288
F0.5
sI12290
F0.405
sI12294
F0.0
sI12299
F0.0
sI12301
F0.0
sI12306
F0.36450000000000005
sI12307
F0.0
sI12313
F0.45
sI12315
F0.5030588087605927
sI12316
F0.9166140915016672
sI12321
F0.505
sI12322
F0.55
sI12324
F0.907348990557408
sI12326
F0.4999998920190568
sI12328
F1.0
sI12334
F0.156905298045
sI12339
F0.3707740505434244
sI12340
F0.0
sI12342
F0.49999983104712276
sI12344
F0.4999999999935417
sI12348
F0.9324574141163504
sI12350
F0.49999999572651516
sI12353
F0.4999999999999998
sI12354
F1.0
sI12360
F0.023550643486231218
sI12361
F0.0
sI12370
F1.0
sI12376
F1.0
sI12378
F1.0
sI12394
F0.45
sI12396
F0.5000455
sI12397
F0.5
sI12402
F0.36450000000000005
sI12403
F0.5
sI12405
F0.5
sI12407
F0.5
sI12409
F0.405
sI12415
F0.5
sI12420
F0.5
sI12421
F0.5629741528458865
sI12423
F0.500455
sI12425
F0.5
sI12427
F0.405
sI12429
F0.499955
sI12431
F0.5
sI12434
F0.5
sI12435
F0.5
sI12436
F0.5
sI12439
F0.45
sI12441
F0.505
sI12442
F0.5950000000000001
sI12451
F0.45
sI12457
F0.45
sI12459
F0.5
sI12460
F0.0
sI12474
F0.11775934326346618
sI12475
F0.0
sI12477
F0.5785760062829179
sI12479
F0.5709113153384558
sI12483
F0.45604786049999996
sI12485
F0.405
sI12488
F0.9874842224750338
sI12489
F0.405
sI12490
F0.0
sI12495
F0.0873195729609634
sI12496
F0.0
sI12501
F0.4905
sI12503
F0.0466374801268012
sI12506
F0.49999999999999933
sI12507
F0.45
sI12508
F0.0
sI12512
F0.5
sI12516
F0.5
sI12518
F0.5
sI12519
F0.45
sI12520
F0.0
sI12522
F0.5
sI12524
F0.0443146905982625
sI12531
F0.14435287420139997
sI12532
F0.0
sI12537
F0.405
sI12538
F0.0
sI12540
F0.55
sI12542
F1.0
sI12559
F0.36450000000000005
sI12565
F0.36450000000000005
sI12567
F0.2657205
sI12568
F0.0
sI12583
F0.6536448191685417
sI12585
F0.462522320144145
sI12586
F0.7608515499999999
sI12591
F0.32805000000000006
sI12592
F0.704755
sI12594
F0.36056378857158006
sI12596
F0.12709329141645
sI12598
F1.0
sI12604
F1.0
sI12636
F0.5
sI12637
F0.5
sI12639
F0.5
sI12641
F0.5
sI12643
F0.5
sI12645
F0.0
sI12650
F0.0
sI12652
F0.0
sI12655
F0.5
sI12657
F0.5
sI12658
F0.55
sI12663
F0.5
sI12665
F0.5
sI12668
F0.5
sI12669
F0.5
sI12670
F0.5
sI12674
F0.0
sI12678
F0.0
sI12681
F0.5
sI12682
F0.5
sI12684
F0.55
sI12686
F0.5
sI12688
F0.5
sI12691
F0.5
sI12693
F0.5
sI12694
F0.5
sI12700
F0.0
sI12702
F0.0
sI12712
F0.45
sI12717
F0.5
sI12719
F0.5
sI12722
F0.9908759981842996
sI12723
F0.5
sI12724
F0.0
sI12728
F0.0
sI12732
F0.0
sI12735
F0.45
sI12736
F0.0
sI12738
F0.482805
sI12740
F0.23914845
sI12746
F0.0
sI12750
F0.0
sI12761
F0.0
sI12762
F0.0
sI12767
F0.0
sI12769
F0.0
sI12771
F0.45
sI12772
F0.0
sI12774
F0.55
sI12776
F1.0
sI12780
F0.0
sI12787
F0.0
sI12792
F0.29524500000000004
sI12793
F0.0
sI12799
F0.5
sI12801
F0.45
sI12802
F0.5
sI12808
F0.0
sI12810
F0.0
sI12820
F1.0
sI12825
F0.5
sI12826
F0.7342795
sI12828
F0.5
sI12830
F0.2657205
sI12832
F1.0
sI12834
F0.0
sI12839
F0.0
sI12844
F1.0
sI12846
F1.0
sI12856
F0.5
sI12865
F0.0
sI12883
F0.5
sI12889
F0.23914845
sI12891
F0.4995
sI12892
F0.0
sI12907
F0.41400000000000003
sI12909
F0.5
sI12910
F0.5
sI12915
F0.49955
sI12916
F0.495
sI12918
F0.4955
sI12920
F0.455
sI12922
F0.36450000000000005
sI12928
F0.36450000000000005
sI12963
F0.05305163839747538
sI12964
F0.0
sI12969
F0.405
sI12970
F0.0
sI12972
F0.49541699914289483
sI12974
F0.4992529922860536
sI12987
F0.40467195
sI12988
F0.0
sI12990
F0.49999540421305516
sI12992
F0.49999999999999956
sI12996
F0.4997428349645746
sI12998
F0.4999678985754509
sI13001
F0.4999999999999998
sI13002
F0.32805000000000006
sI13003
F0.0
sI13008
F0.405
sI13009
F0.0
sI13026
F0.45
sI13027
F0.0
sI13072
F0.215233605
sI13078
F0.10294556604732451
sI13080
F0.03589489938459262
sI13081
F0.0
sI13123
F0.49400883512539606
sI13125
F0.495756162977034
sI13126
F0.496794745
sI13131
F0.4966841080602074
sI13132
F0.4952823701630873
sI13134
F0.495
sI13136
F0.5
sI13138
F0.48971298556243453
sI13144
F0.5158822572681325
sI13149
F0.5006336129104433
sI13150
F0.5012326512718414
sI13152
F0.5014
sI13154
F0.5
sI13156
F0.32805000000000006
sI13158
F0.5006049399999999
sI13160
F0.49849750000000004
sI13163
F0.5
sI13164
F0.5
sI13165
F0.5007661836028602
sI13168
F0.31027050000000006
sI13170
F0.5
sI13171
F0.5
sI13180
F0.45
sI13186
F0.40499595
sI13188
F0.45
sI13189
F0.0
sI13203
F0.5314363916390537
sI13204
F0.5231403820984646
sI13206
F0.5272793878049423
sI13208
F0.29042631
sI13210
F0.49905
sI13212
F0.5300047921471333
sI13214
F0.334680255
sI13217
F0.48645
sI13218
F0.24478400675426407
sI13219
F0.508833724744
sI13222
F0.5026487315577713
sI13224
F0.21738594104999998
sI13225
F0.5950000000000001
sI13230
F0.6064659677941636
sI13232
F0.156905298045
sI13235
F0.4905
sI13236
F0.32805000000000006
sI13237
F0.5
sI13241
F0.479755
sI13245
F0.5
sI13247
F0.405
sI13248
F0.24858496146163503
sI13249
F0.5
sI13251
F0.55
sI13253
F0.45
sI13255
F0.5
sI13258
F0.4690997860696601
sI13260
F0.2987142260791354
sI13261
F0.5
sI13266
F0.1412147682405
sI13267
F0.42239416565024557
sI13269
F0.5
sI13271
F0.5
sI13273
F0.29524500000000004
sI13279
F0.5
sI13288
F0.29524500000000004
sI13294
F0.27162516781408663
sI13296
F0.2825239500000001
sI13297
F0.0
sI13312
F0.10294556604732451
sI13314
F0.494782659495
sI13315
F0.46171984499999996
sI13320
F0.488599128
sI13321
F0.457706295
sI13323
F0.5950000000000001
sI13325
F1.0
sI13327
F0.368145
sI13333
F0.405
sI13365
F0.5022744734235005
sI13366
F0.50202855
sI13368
F0.5005
sI13370
F0.502065
sI13372
F0.4995
sI13374
F0.5139617989138993
sI13376
F0.5
sI13379
F0.5
sI13380
F0.4995
sI13381
F0.5047782870383989
sI13384
F0.5
sI13386
F0.5
sI13387
F0.5004225726813246
sI13392
F0.5175539875427201
sI13394
F0.45
sI13397
F0.55
sI13398
F0.45
sI13399
F0.495
sI13403
F0.55
sI13407
F0.5
sI13409
F0.5
sI13410
F0.450045
sI13411
F0.495
sI13413
F0.5
sI13415
F0.5
sI13417
F0.45
sI13420
F0.5
sI13422
F0.49957597443251495
sI13423
F0.5
sI13428
F0.5030538221902202
sI13429
F0.49136855
sI13431
F0.5005
sI13433
F0.505
sI13435
F0.49955
sI13441
F0.5
sI13446
F0.5304705485505423
sI13448
F0.31027050000000006
sI13451
F0.49185
sI13452
F0.10294556604732451
sI13453
F0.5
sI13457
F0.5
sI13461
F0.495
sI13463
F0.5
sI13464
F0.21922494088821143
sI13465
F0.4809933467321386
sI13467
F0.5
sI13469
F0.5
sI13471
F0.45
sI13475
F0.0
sI13479
F0.0
sI13490
F0.0
sI13491
F0.0
sI13496
F0.0
sI13498
F0.0
sI13500
F0.5250465141536163
sI13501
F0.5340633628335798
sI13503
F0.547968010264407
sI13505
F0.29524500000000004
sI13507
F0.4908258117033985
sI13509
F0.8954701253653411
sI13511
F0.36450000000000005
sI13514
F0.5
sI13515
F0.08338590849833284
sI13516
F0.4837119734050551
sI13519
F0.4538032884054912
sI13521
F0.36417194999999997
sI13522
F0.4497781268181695
sI13528
F0.501387944005
sI13530
F0.634365531445612
sI13531
F0.5079720028258675
sI13536
F0.6396179891389926
sI13537
F0.5689659954293732
sI13539
F0.9166140915016672
sI13541
F1.0
sI13543
F0.5880424377900477
sI13549
F0.5014602390817852
sI13554
F0.577993141496685
sI13555
F0.5950113263340421
sI13557
F0.8970544339526756
sI13559
F1.0
sI13561
F0.5
sI13563
F0.9166140915016672
sI13565
F1.0
sI13569
F0.505
sI13570
F0.9392116727047154
sI13573
F0.36450000000000005
sI13575
F0.5
sI13576
F0.907348990557408
sI13585
F0.29524500000000004
sI13591
F0.36450000000000005
sI13593
F0.45
sI13594
F0.0
sI13612
F0.4545
sI13618
F0.45
sI13620
F0.45
sI13621
F0.0
sI13636
F0.405
sI13638
F0.5
sI13639
F0.55
sI13644
F0.5
sI13645
F0.5
sI13647
F0.5
sI13649
F0.5
sI13651
F0.45
sI13657
F1.0
sI13690
F0.5105731969208285
sI13692
F0.1937102445
sI13693
F0.55
sI13698
F0.23914845
sI13699
F0.464036198394097
sI13701
F0.5
sI13703
F0.405
sI13705
F0.36848262312682645
sI13711
F1.0
sI13716
F0.6540974394197365
sI13717
F0.87290670858355
sI13719
F0.9166140915016672
sI13721
F0.41400000000000003
sI13723
F0.5
sI13725
F0.542044299043501
sI13727
F0.2657205
sI13730
F0.5
sI13731
F0.364204755
sI13732
F0.49595
sI13735
F1.0
sI13737
F1.0
sI13747
F0.5
sI13753
F0.3641355
sI13755
F0.5
sI13756
F0.0
sI13801
F0.405
sI13807
F0.405
sI13809
F0.5
sI13810
F0.0
sI13851
F0.4934124457011576
sI13852
F0.5
sI13854
F0.5
sI13856
F0.4995
sI13858
F0.5
sI13860
F0.48492604495575
sI13862
F0.45
sI13865
F0.5
sI13866
F0.45
sI13867
F0.46432041078725866
sI13870
F0.5
sI13872
F0.5
sI13873
F0.55
sI13878
F0.501355
sI13880
F0.5135500000000001
sI13883
F0.55
sI13884
F0.5
sI13885
F0.0
sI13889
F0.5
sI13893
F0.5
sI13895
F0.5
sI13896
F0.5
sI13897
F0.0
sI13899
F0.5
sI13901
F0.5
sI13906
F0.5
sI13908
F0.5
sI13909
F0.5
sI13914
F0.45
sI13915
F0.5
sI13917
F0.5
sI13919
F0.5
sI13921
F0.4495707492080929
sI13927
F0.5
sI13932
F0.645590020647031
sI13934
F0.32805000000000006
sI13937
F0.495
sI13938
F0.45
sI13939
F0.495
sI13943
F0.0
sI13947
F0.0
sI13950
F0.5994639995320014
sI13951
F0.885616037725195
sI13953
F0.8587852317595001
sI13955
F0.4487805
sI13957
F0.5
sI13961
F0.5
sI13965
F0.5
sI13967
F0.5
sI13976
F0.0
sI13977
F0.9166140915016672
sI13979
F0.45
sI13982
F0.5
sI13983
F0.5
sI13984
F0.0
sI13986
F0.405
sI13987
F0.5
sI13989
F0.5
sI13991
F0.5
sI13993
F0.45
sI13995
F0.0
sI14000
F0.0
sI14002
F0.0
sI14005
F0.505
sI14007
F0.5
sI14008
F0.55
sI14014
F0.29524500000000004
sI14016
F0.48658453649999994
sI14017
F0.45438934499999994
sI14022
F0.49281898500000004
sI14023
F0.46437704999999996
sI14025
F0.55
sI14027
F1.0
sI14029
F0.405
sI14035
F0.36450000000000005
sI14040
F0.29524500000000004
sI14041
F0.0
sI14043
F0.55
sI14045
F1.0
sI14049
F0.5
sI14051
F1.0
sI14055
F0.5
sI14056
F0.0
sI14061
F0.5
sI14062
F0.0
sI14071
F0.405
sI14077
F0.405
sI14079
F0.45
sI14080
F0.0
sI14094
F0.50086
sI14096
F0.5
sI14099
F0.5
sI14100
F0.5
sI14101
F0.5
sI14105
F0.5
sI14109
F0.495
sI14111
F0.5
sI14112
F0.5
sI14113
F0.5
sI14115
F0.5
sI14117
F0.5
sI14119
F0.45
sI14123
F0.55
sI14127
F0.5
sI14129
F0.5
sI14138
F0.5
sI14139
F0.5
sI14141
F0.5
sI14144
F0.5
sI14145
F0.5
sI14146
F0.0
sI14148
F0.5
sI14149
F0.5
sI14151
F0.5003824004014196
sI14153
F0.5
sI14155
F0.5
sI14157
F0.5165631477853264
sI14159
F0.5
sI14162
F0.5
sI14163
F0.5
sI14164
F0.4952305467565885
sI14167
F0.5
sI14169
F0.5
sI14170
F0.5
sI14177
F0.495
sI14181
F0.5
sI14183
F0.45
sI14192
F0.0
sI14193
F0.49841674465462293
sI14195
F0.36450000000000005
sI14198
F0.48645
sI14199
F0.405
sI14200
F0.5
sI14210
F0.0
sI14222
F0.0
sI14226
F0.0
sI14229
F0.49832506058543813
sI14231
F0.32805000000000006
sI14234
F0.5
sI14235
F0.45
sI14236
F0.4956608464951425
sI14240
F0.0
sI14244
F0.0
sI14247
F0.4991971033734015
sI14248
F0.49916434629420503
sI14250
F0.4985978254998645
sI14252
F0.36450000000000005
sI14254
F0.4999103264190794
sI14256
F0.5145757105375438
sI14257
F0.4907658516101977
sI14259
F0.8970544339526756
sI14261
F1.0
sI14263
F0.34524499999999997
sI14265
F0.885616037725195
sI14267
F1.0
sI14271
F0.5
sI14272
F0.907348990557408
sI14275
F0.45
sI14277
F0.612579511
sI14278
F0.4999868192481897
sI14283
F0.6355000000000001
sI14285
F1.0
sI14289
F0.5
sI14290
F0.0
sI14298
F0.55
sI14300
F1.0
sI14301
F0.45
sI14302
F0.0
sI14304
F0.7847663949999999
sI14306
F1.0
sI14311
F0.4933361471095994
sI14313
F0.5023355610366195
sI14314
F0.49999976332106344
sI14319
F0.575035674824909
sI14320
F0.49627052684313544
sI14322
F0.9249526823515004
sI14324
F1.0
sI14326
F0.49895608292674865
sI14332
F0.49999999999991745
sI14338
F0.5
sI14340
F0.5
sI14341
F0.5
sI14346
F0.45
sI14347
F0.5
sI14349
F0.5
sI14351
F0.45
sI14353
F0.405
sI14359
F1.0
sI14364
F0.5
sI14365
F0.0
sI14367
F0.5
sI14369
F0.5
sI14373
F0.5
sI14375
F0.5
sI14378
F0.5
sI14379
F0.5
sI14380
F0.0
sI14385
F1.0
sI14395
F0.5
sI14401
F0.5
sI14403
F0.5
sI14404
F0.0
sI14418
F0.32805000000000006
sI14419
F0.5950000000000001
sI14421
F0.5
sI14423
F0.45
sI14425
F0.5
sI14427
F0.0
sI14432
F0.0
sI14434
F0.0
sI14437
F1.0
sI14439
F1.0
sI14445
F0.9392116727047154
sI14447
F0.45
sI14450
F0.55
sI14451
F0.405
sI14452
F0.0
sI14456
F0.0
sI14460
F0.0
sI14463
F1.0
sI14468
F1.0
sI14473
F0.5
sI14475
F0.5
sI14476
F0.5
sI14482
F0.0
sI14484
F0.0
sI14494
F1.0
sI14503
F0.36450000000000005
sI14509
F0.405
sI14511
F0.505
sI14512
F0.0
sI14529
F0.45
sI14530
F0.0
sI14535
F0.215233605
sI14536
F0.0
sI14538
F0.55
sI14540
F1.0
sI14584
F0.32805000000000006
sI14590
F0.45
sI14592
F0.45
sI14593
F0.0
sI14608
F0.5041815127184146
sI14610
F0.5095000000000001
sI14611
F0.5
sI14616
F0.505
sI14617
F0.55
sI14619
F0.55
sI14621
F0.5
sI14623
F0.526595233339527
sI14629
F0.5095000000000001
sI14662
F0.5142591941203061
sI14664
F0.19133693389348086
sI14665
F0.9507614548908194
sI14670
F0.5271246356349006
sI14671
F0.9392116727047154
sI14673
F0.9507614548908194
sI14675
F0.45
sI14677
F0.5530134713950001
sI14683
F0.20356847505000003
sI14688
F0.0443146905982625
sI14689
F0.907348990557408
sI14691
F0.55
sI14693
F0.405
sI14695
F0.22037378558588572
sI14697
F0.9676945905538666
sI14699
F0.36450000000000005
sI14702
F0.5
sI14703
F0.45
sI14704
F0.67195
sI14707
F0.1937102445
sI14709
F0.5
sI14710
F0.55
sI14719
F0.45
sI14725
F0.114383962274805
sI14727
F0.45
sI14728
F0.0
sI14773
F0.32805000000000006
sI14779
F0.07669576378171244
sI14781
F0.5
sI14782
F0.0
sI14824
F0.5
sI14826
F0.5
sI14827
F0.5
sI14832
F0.5200913420387651
sI14833
F0.5950000000000001
sI14835
F0.55
sI14837
F0.5
sI14839
F0.49955
sI14845
F0.5
sI14850
F0.45
sI14851
F0.55
sI14853
F0.5
sI14855
F0.5
sI14857
F0.405
sI14859
F0.5950000000000001
sI14861
F0.5
sI14864
F0.5
sI14865
F0.5
sI14866
F0.6355000000000001
sI14869
F0.45
sI14871
F0.5
sI14872
F0.55
sI14881
F0.5
sI14887
F0.45
sI14889
F0.45
sI14890
F0.0
sI14904
F0.114383962274805
sI14905
F0.9249526823515004
sI14907
F0.55
sI14909
F0.4545
sI14911
F0.45
sI14913
F0.9324574141163504
sI14915
F0.5
sI14918
F0.55
sI14919
F0.45
sI14920
F0.67195
sI14923
F0.405
sI14925
F0.5
sI14926
F0.5
sI14931
F0.0
sI14936
F0.0
sI14938
F0.0
sI14942
F0.0
sI14946
F0.0
sI14950
F0.0
sI14952
F0.0
sI14959
F0.5200094903793844
sI14961
F0.29524500000000004
sI14962
F0.9249526823515004
sI14967
F0.9361386622355464
sI14968
F0.9641051006154073
sI14970
F0.9601167784615637
sI14972
F1.0
sI14974
F0.4873509627522124
sI14980
F0.32805000000000006
sI14989
F0.2657205
sI14995
F0.3441959151042572
sI14997
F0.5
sI14998
F0.0
sI15013
F0.671191532276062
sI15015
F0.505
sI15016
F0.7342795
sI15021
F0.6701501956653999
sI15022
F0.8062897554999999
sI15024
F0.82566077995
sI15026
F1.0
sI15028
F0.49999497423755135
sI15034
F1.0
sI15097
F0.45
sI15103
F0.36450000000000005
sI15105
F0.5
sI15106
F0.0
sI15151
F0.45
sI15157
F0.405
sI15159
F0.45
sI15160
F0.0
sI15175
F0.9537947309661579
sI15177
F0.32805000000000006
sI15178
F0.9641051006154073
sI15183
F0.5218568505147231
sI15184
F0.9874842224750338
sI15186
F0.9641051006154073
sI15188
F0.32805000000000006
sI15190
F0.48490714827442427
sI15196
F1.0
sI15309
F0.4974210605422039
sI15310
F0.500455
sI15312
F0.5105084388639066
sI15314
F0.36450000000000005
sI15316
F0.4997151504544831
sI15318
F0.4999545
sI15320
F0.5
sI15323
F0.5
sI15324
F0.49917320307257135
sI15325
F0.4999230302052131
sI15328
F0.5
sI15330
F0.45
sI15331
F0.55
sI15336
F0.5005
sI15338
F0.5
sI15341
F0.5
sI15342
F0.5
sI15343
F0.5
sI15347
F0.5
sI15351
F0.5005
sI15353
F0.5
sI15354
F0.505
sI15355
F0.5
sI15357
F0.5
sI15359
F0.5
sI15361
F0.5
sI15364
F0.4995
sI15366
F0.45
sI15367
F0.5
sI15372
F0.5
sI15373
F0.495
sI15375
F0.5
sI15377
F0.5
sI15379
F0.49923030205213115
sI15385
F0.5
sI15390
F0.5364985762217387
sI15392
F0.215233605
sI15395
F0.0
sI15396
F0.5312640070839661
sI15397
F0.5340214238878913
sI15401
F0.5
sI15405
F0.4999925561428343
sI15407
F0.32716098450000003
sI15408
F0.08338590849833284
sI15409
F0.55
sI15411
F0.0
sI15415
F0.5048690620295995
sI15419
F0.5
sI15423
F0.5928402744623904
sI15425
F0.45
sI15434
F0.5
sI15435
F0.5
sI15437
F0.5
sI15440
F0.0
sI15441
F0.4329766395
sI15442
F0.7608515499999999
sI15444
F0.12709329141645
sI15445
F0.5
sI15447
F0.0
sI15451
F0.4967603780948977
sI15453
F0.5
sI15455
F0.5
sI15458
F0.0
sI15459
F0.32772195
sI15460
F0.4898181812182431
sI15463
F0.5
sI15466
F0.0
sI15472
F0.499165503342944
sI15474
F0.5377487324628005
sI15475
F0.5665880298282976
sI15480
F0.5005099613191881
sI15481
F0.49217045078834815
sI15483
F0.5950000000000001
sI15485
F1.0
sI15487
F0.49443010712739227
sI15493
F0.6495136404255726
sI15498
F0.49875033841417543
sI15499
F0.4962790256022514
sI15501
F0.5950000000000001
sI15503
F1.0
sI15505
F0.45
sI15507
F0.55
sI15509
F1.0
sI15513
F0.5424990366410958
sI15514
F0.49987435987345735
sI15517
F0.47562897555
sI15519
F0.5
sI15520
F0.7847663949999999
sI15529
F0.32805000000000006
sI15535
F0.45
sI15537
F0.405
sI15538
F0.0
sI15552
F0.5154219551613792
sI15554
F0.5
sI15557
F0.5
sI15558
F0.5
sI15559
F0.5
sI15563
F0.5
sI15567
F0.5
sI15569
F0.5
sI15570
F0.5
sI15571
F0.5
sI15573
F0.5
sI15575
F0.5
sI15577
F0.5
sI15581
F0.5
sI15585
F0.5
sI15587
F0.5
sI15596
F0.5
sI15597
F0.5005
sI15599
F0.5
sI15602
F0.5
sI15603
F0.5
sI15604
F0.5
sI15606
F0.5
sI15607
F0.5
sI15609
F0.495
sI15611
F0.45
sI15613
F0.5
sI15615
F0.5017333668571153
sI15617
F0.5
sI15620
F0.55
sI15621
F0.5
sI15622
F0.49999999999999994
sI15625
F0.5
sI15627
F0.5
sI15628
F0.5
sI15635
F0.5
sI15639
F0.49875311392937605
sI15641
F0.29524500000000004
sI15650
F0.48645
sI15651
F0.495
sI15653
F0.5
sI15656
F0.0
sI15657
F0.45
sI15658
F0.4249132470269363
sI15668
F0.0
sI15680
F0.0
sI15684
F0.0
sI15687
F0.49960567614352397
sI15689
F0.37755000000000005
sI15692
F0.0
sI15693
F0.4997692844519822
sI15694
F0.4996314692651889
sI15698
F0.55
sI15702
F0.4999561100245969
sI15704
F0.32805000000000006
sI15705
F0.32805000000000006
sI15706
F0.451551722089147
sI15708
F0.0
sI15712
F0.4884104111011038
sI15714
F0.5570828793264241
sI15715
F0.5418871181086304
sI15717
F0.907348990557408
sI15719
F1.0
sI15721
F0.49624177581213164
sI15723
F0.9166140915016672
sI15725
F1.0
sI15729
F0.56325089092645
sI15730
F0.49998410745821475
sI15733
F0.5344219800280767
sI15735
F0.5095000000000001
sI15736
F0.907348990557408
sI15741
F0.8587852317595001
sI15743
F1.0
sI15747
F0.5010864212064663
sI15748
F0.4890697189080437
sI15756
F0.9166140915016672
sI15758
F1.0
sI15759
F0.505
sI15760
F0.9556853094017375
sI15762
F0.5950000000000001
sI15764
F1.0
sI15766
F0.23914845
sI15769
F0.4999999996952396
sI15771
F0.5
sI15772
F0.49999999898413205
sI15777
F0.5086668342855487
sI15778
F0.49999999999943645
sI15780
F0.9676945905538666
sI15782
F1.0
sI15784
F0.49999999999999956
sI15790
F0.499999997968264
sI15796
F0.505
sI15798
F0.405
sI15799
F0.55
sI15804
F0.5
sI15805
F0.5
sI15807
F0.5
sI15809
F0.5
sI15811
F0.5
sI15817
F1.0
sI15822
F0.5
sI15823
F0.5
sI15825
F0.5
sI15827
F0.5
sI15829
F0.5
sI15831
F0.5
sI15833
F0.5
sI15836
F0.5
sI15837
F0.5
sI15838
F0.5
sI15841
F1.0
sI15843
F1.0
sI15853
F0.5
sI15859
F0.45
sI15861
F0.5
sI15862
F0.0
sI15876
F0.2657205
sI15877
F0.55
sI15879
F0.0
sI15883
F0.5347010830627861
sI15885
F0.5
sI15887
F0.5
sI15890
F0.0
sI15891
F0.32659389076827233
sI15892
F0.49999878914735224
sI15895
F1.0
sI15903
F0.8587852317595001
sI15905
F0.45
sI15908
F0.0
sI15909
F0.5487946994136386
sI15910
F0.9249526823515004
sI15914
F0.5
sI15918
F0.49972471037940913
sI15920
F0.29524500000000004
sI15921
F1.0
sI15928
F1.0
sI15931
F0.5
sI15934
F0.0
sI15939
F0.5
sI15940
F0.495
sI15942
F0.0
sI15946
F0.215233605
sI15961
F0.45
sI15967
F0.405
sI15969
F0.5
sI15970
F0.0
sI15985
F0.45
sI15987
F0.5
sI15988
F0.5
sI15993
F0.5
sI15994
F0.5
sI15996
F0.5
sI15998
F1.0
sI16000
F0.156905298045
sI16006
F1.0
sI16038
F0.5
sI16040
F0.505
sI16043
F0.5
sI16044
F0.4980481261116879
sI16045
F0.4975039616737009
sI16049
F0.55
sI16053
F0.490746089428819
sI16055
F0.45
sI16056
F0.505
sI16057
F0.55
sI16059
F0.5
sI16061
F0.5
sI16063
F0.405
sI16067
F0.55
sI16071
F0.5005
sI16073
F0.505
sI16082
F0.5
sI16083
F0.55
sI16085
F0.5
sI16088
F0.5
sI16089
F0.5
sI16090
F0.0
sI16092
F0.4643958324404632
sI16093
F0.5005
sI16095
F0.50848109559775
sI16097
F0.45
sI16099
F0.49738624481611104
sI16101
F0.50204755
sI16103
F0.5
sI16106
F0.5
sI16107
F0.405
sI16108
F0.4960918084811686
sI16111
F0.505
sI16113
F0.45
sI16114
F0.5
sI16121
F0.5
sI16125
F0.8493175110173103
sI16127
F0.405
sI16136
F0.0
sI16137
F0.843094701955
sI16139
F0.5
sI16142
F0.0
sI16143
F0.8993988178311625
sI16144
F0.9452905054342439
sI16154
F0.55
sI16166
F0.5
sI16170
F0.9166140915016672
sI16172
F1.0
sI16173
F0.42425629131225207
sI16175
F0.36450000000000005
sI16178
F0.0
sI16179
F0.38104217385751826
sI16180
F0.4978338382074669
sI16184
F0.0
sI16188
F0.0
sI16191
F0.3681169160659394
sI16192
F0.55
sI16194
F0.0
sI16198
F0.49997777874019456
sI16200
F0.6993733411912247
sI16201
F0.5245460285430489
sI16203
F0.907348990557408
sI16205
F1.0
sI16207
F0.36450000000000005
sI16209
F0.87290670858355
sI16211
F1.0
sI16215
F0.48897647415561
sI16216
F0.4949448503823543
sI16219
F0.215233605
sI16221
F0.514
sI16222
F0.7608515499999999
sI16227
F0.9324574141163504
sI16229
F1.0
sI16233
F0.45
sI16234
F0.0
sI16242
F0.9324574141163504
sI16244
F1.0
sI16245
F0.36450000000000005
sI16246
F0.0
sI16248
F0.5950000000000001
sI16250
F1.0
sI16255
F0.5082177289838923
sI16257
F0.5754879731759501
sI16258
F0.8970544339526756
sI16263
F0.5204755
sI16264
F0.87290670858355
sI16266
F0.7342795
sI16268
F1.0
sI16270
F0.4992104254435057
sI16276
F0.4964099953285145
sI16283
F0.5
sI16287
F0.5091805365531609
sI16289
F0.5
sI16298
F0.5
sI16299
F0.5
sI16301
F0.5
sI16304
F0.5
sI16305
F0.5
sI16306
F0.5
sI16316
F0.5
sI16328
F0.5
sI16332
F0.5
sI16334
F1.0
sI16335
F0.499976085155
sI16337
F0.5
sI16340
F0.5
sI16341
F0.5
sI16342
F0.49999882847181193
sI16346
F0.5
sI16350
F0.5
sI16352
F0.5
sI16353
F0.49976085155
sI16354
F0.5
sI16356
F0.4976085155
sI16358
F0.5
sI16360
F0.4999865139197205
sI16370
F0.5
sI16382
F0.5
sI16386
F0.9249526823515004
sI16388
F1.0
sI16418
F0.5
sI16422
F0.49991421781776285
sI16424
F0.32805000000000006
sI16433
F0.0
sI16434
F0.49993419350541746
sI16436
F0.36450000000000005
sI16439
F0.0
sI16440
F0.4999998976078173
sI16441
F0.49999999999205313
sI16443
F0.87290670858355
sI16445
F1.0
sI16449
F0.536306358645108
sI16450
F0.49999999999999933
sI16458
F0.9874842224750338
sI16460
F1.0
sI16461
F0.5001976673329427
sI16462
F0.49999999999999933
sI16464
F0.9709251314984799
sI16466
F1.0
sI16468
F0.0016906959567613627
sI16476
F0.9641051006154073
sI16478
F1.0
sI16488
F0.9641051006154073
sI16490
F1.0
sI16494
F0.36450000000000005
sI16495
F0.0
sI16497
F0.5
sI16498
F0.4998066938651768
sI16500
F0.907348990557408
sI16502
F1.0
sI16504
F0.49999999999999956
sI16506
F0.9166140915016672
sI16508
F1.0
sI16512
F0.49996132229949264
sI16513
F0.4999999999999998
sI16516
F0.49999999999999956
sI16518
F0.48044651559050794
sI16519
F0.4999999999999998
sI16524
F0.5121978508
sI16525
F0.55
sI16527
F0.55
sI16529
F0.5
sI16531
F0.45
sI16533
F0.5012425
sI16535
F0.405
sI16538
F0.5
sI16539
F0.45405
sI16540
F0.4905
sI16543
F1.0
sI16545
F1.0
sI16551
F0.5
sI16553
F0.5
sI16556
F0.5
sI16557
F0.5
sI16558
F0.0
sI16562
F0.5
sI16566
F0.5
sI16568
F0.5
sI16569
F1.0
sI16574
F1.0
sI16579
F0.5
sI16581
F0.45
sI16582
F0.5
sI16587
F0.45
sI16588
F0.5
sI16590
F0.5
sI16592
F0.5
sI16594
F0.405
sI16600
F1.0
sI16605
F0.55
sI16607
F0.5
sI16610
F0.0
sI16611
F0.4177554433952676
sI16612
F0.9249526823515004
sI16616
F0.0
sI16620
F0.0
sI16623
F1.0
sI16630
F1.0
sI16634
F0.5
sI16638
F0.907348990557408
sI16640
F0.405
sI16649
F0.0
sI16652
F1.0
sI16656
F1.0
sI16659
F0.36450000000000005
sI16660
F0.5
sI16662
F0.0
sI16666
F0.45
sI16668
F0.0
sI16673
F0.0
sI16675
F0.0
sI16678
F1.0
sI16687
F0.36450000000000005
sI16689
F0.5
sI16690
F0.5
sI16695
F0.521695
sI16696
F0.5950000000000001
sI16698
F0.55
sI16700
F1.0
sI16702
F0.45
sI16708
F1.0
sI16713
F0.405
sI16714
F0.0
sI16716
F0.5
sI16718
F1.0
sI16722
F0.55
sI16724
F1.0
sI16728
F0.29524500000000004
sI16729
F0.0
sI16734
F1.0
sI16744
F1.0
sI16750
F1.0
sI16752
F1.0
sI16768
F0.5
sI16770
F0.45
sI16771
F0.5
sI16776
F0.4995
sI16777
F0.495
sI16779
F0.5
sI16781
F0.5
sI16783
F0.49901585
sI16789
F0.5
sI16794
F0.5
sI16795
F0.500865127184146
sI16797
F0.5
sI16799
F0.5
sI16801
F0.5
sI16803
F0.5
sI16805
F0.505
sI16808
F0.55
sI16809
F0.5
sI16810
F0.48541597586323315
sI16813
F0.5
sI16815
F0.45
sI16816
F0.55
sI16825
F0.5
sI16831
F0.5
sI16833
F0.5
sI16834
F0.0
sI16848
F0.04598960880519414
sI16849
F0.4999670220167375
sI16851
F0.0
sI16855
F0.4999854488586869
sI16857
F0.4999983108185205
sI16859
F0.16252289513550003
sI16862
F0.0
sI16863
F0.49999853488968526
sI16864
F0.49999986545095804
sI16867
F0.215233605
sI16870
F0.0
sI16875
F0.4905
sI16877
F0.405
sI16880
F0.0
sI16881
F0.19335049655008685
sI16882
F0.49999999124863537
sI16886
F0.5
sI16890
F0.4999793311388027
sI16892
F0.17433922005
sI16893
F0.45
sI16894
F0.5
sI16896
F0.0
sI16900
F0.23914845
sI16903
F0.2755982972731942
sI16906
F0.0
sI16911
F0.1412147682405
sI16912
F0.5
sI16914
F0.0
sI16918
F0.48996753964097467
sI16933
F0.40905
sI16939
F0.36450000000000005
sI16941
F0.5
sI16942
F0.0
sI16957
F0.49750901842285655
sI16959
F0.5
sI16960
F0.5
sI16965
F0.5081385604848624
sI16966
F0.49999603266568116
sI16968
F0.9166140915016672
sI16970
F1.0
sI16972
F0.49999999999999956
sI16978
F1.0
sI17010
F0.5
sI17011
F0.5
sI17013
F0.5
sI17015
F0.5
sI17017
F0.5
sI17019
F0.52246942075
sI17021
F0.560843434
sI17024
F0.5950000000000001
sI17025
F0.4989961171966621
sI17026
F0.4955
sI17029
F0.5
sI17031
F0.5
sI17032
F0.5
sI17037
F0.5
sI17039
F0.5
sI17042
F0.5
sI17043
F0.5
sI17044
F0.5
sI17048
F0.6355000000000001
sI17052
F0.4944611719666209
sI17054
F0.45
sI17055
F0.5
sI17056
F0.5
sI17058
F0.5
sI17060
F0.5
sI17062
F0.5
sI17065
F0.5
sI17067
F0.5
sI17068
F0.5
sI17073
F0.5
sI17074
F0.5
sI17076
F0.5
sI17078
F1.0
sI17080
F0.455
sI17086
F0.5
sI17091
F0.5
sI17093
F0.5
sI17096
F0.0
sI17097
F0.23914845
sI17098
F0.49994340037612206
sI17102
F0.67195
sI17106
F0.4999999999999327
sI17108
F0.054709494565756175
sI17109
F0.45
sI17110
F0.5
sI17112
F0.0
sI17116
F0.1937102445
sI17120
F0.0
sI17124
F0.0
sI17135
F0.0
sI17136
F0.0
sI17141
F0.0
sI17143
F0.0
sI17145
F0.32805000000000006
sI17146
F0.49999997968304305
sI17148
F0.0
sI17152
F0.49999999999999956
sI17154
F0.9507614548908194
sI17156
F1.0
sI17160
F0.49999999999999956
sI17161
F0.4999999999999998
sI17164
F0.156905298045
sI17167
F0.0
sI17173
F0.5
sI17175
F0.505
sI17176
F0.55
sI17181
F0.5127902551185596
sI17182
F0.49143025492711984
sI17184
F0.6355000000000001
sI17186
F1.0
sI17188
F0.49340138239083303
sI17194
F1.0
sI17199
F0.5
sI17200
F0.7342795
sI17202
F0.55
sI17204
F1.0
sI17206
F0.4897685291847635
sI17208
F0.885616037725195
sI17210
F1.0
sI17214
F0.4938658243457
sI17215
F0.4999999999999998
sI17218
F1.0
sI17220
F1.0
sI17230
F0.45
sI17236
F0.08338590849833284
sI17238
F0.45
sI17239
F0.0
sI17257
F0.5
sI17263
F0.45
sI17265
F0.5
sI17266
F0.0
sI17281
F0.5041512718414609
sI17283
F0.5
sI17284
F0.55
sI17289
F0.5
sI17290
F0.49651271841460926
sI17292
F0.5
sI17294
F0.5
sI17296
F0.4651271841460925
sI17302
F1.0
sI17335
F0.4549996510555007
sI17338
F0.0
sI17343
F0.1937102445
sI17344
F0.49999651055500705
sI17346
F0.0
sI17350
F0.4999999999995294
sI17361
F0.32805000000000006
sI17362
F0.9641051006154073
sI17364
F0.0
sI17368
F0.49999999999999956
sI17370
F0.4999999999923105
sI17372
F0.0675425858836496
sI17375
F0.0
sI17376
F0.49999999999999956
sI17377
F0.4999999999999998
sI17380
F1.0
sI17398
F0.45
sI17401
F0.0
sI17446
F0.5
sI17452
F0.2657205
sI17454
F0.405
sI17455
F0.0
sI17500
F0.35769745
sI17506
F0.45
sI17508
F0.5
sI17509
F0.0
sI17524
F0.45
sI17526
F0.5
sI17527
F0.5
sI17532
F0.5
sI17533
F0.5
sI17535
F0.5
sI17537
F0.505
sI17539
F0.45
sI17545
F0.5
sI17578
F0.4995
sI17580
F0.550569268373696
sI17581
F0.9249526823515004
sI17586
F0.22788922005
sI17587
F0.5
sI17589
F0.87290670858355
sI17591
F0.45
sI17593
F0.45
sI17599
F0.5611605895
sI17604
F0.33534
sI17605
F0.55
sI17607
F0.9249526823515004
sI17609
F0.36450000000000005
sI17611
F0.5
sI17613
F0.5
sI17615
F0.46
sI17618
F0.55
sI17619
F0.5
sI17620
F0.5
sI17623
F0.5
sI17625
F0.5
sI17626
F0.67195
sI17635
F0.5
sI17641
F0.32805000000000006
sI17643
F0.28076352799500004
sI17644
F0.0
sI17689
F0.405
sI17695
F0.405
sI17697
F0.45
sI17698
F0.0
sI17740
F0.5080500000000001
sI17742
F0.5
sI17743
F0.5950000000000001
sI17748
F0.5095000000000001
sI17749
F0.55
sI17751
F0.5
sI17753
F0.5
sI17755
F0.5
sI17761
F0.5
sI17766
F0.45
sI17767
F0.55
sI17769
F0.5
sI17771
F0.5
sI17773
F0.5
sI17775
F0.55
sI17777
F0.5
sI17780
F0.55
sI17781
F0.5
sI17782
F0.5
sI17785
F0.5
sI17787
F0.5
sI17788
F0.5
sI17797
F0.5
sI17803
F0.45
sI17805
F0.5
sI17806
F0.0
sI17820
F0.16046540804454706
sI17821
F0.5950000000000001
sI17823
F0.885616037725195
sI17825
F0.45
sI17827
F0.5
sI17829
F0.5950000000000001
sI17831
F0.5
sI17834
F0.5
sI17835
F0.5
sI17836
F0.5
sI17839
F0.405
sI17841
F0.405
sI17842
F0.6355000000000001
sI17847
F0.0
sI17852
F0.0
sI17854
F0.0
sI17858
F0.0
sI17862
F0.0
sI17866
F0.0
sI17868
F0.0
sI17875
F0.5119737786368312
sI17877
F0.5374889795006422
sI17878
F0.87290670858355
sI17883
F0.086823260948653
sI17884
F0.8587852317595001
sI17886
F0.8970544339526756
sI17888
F0.5
sI17890
F0.405
sI17896
F0.4757578306916704
sI17905
F0.3292705
sI17911
F0.31860945000000007
sI17913
F0.5
sI17914
F0.0
sI17929
F0.405
sI17931
F0.54331795
sI17932
F0.67195
sI17937
F0.505
sI17938
F0.5950000000000001
sI17940
F0.55
sI17942
F1.0
sI17944
F1.0
sI17950
F0.32805000000000006
sI18013
F0.5
sI18019
F0.5
sI18021
F0.5
sI18022
F0.0
sI18067
F0.5
sI18073
F0.405
sI18075
F0.1321748210473245
sI18076
F0.0
sI18091
F0.45
sI18093
F0.5095000000000001
sI18094
F0.55
sI18099
F0.29524500000000004
sI18100
F0.5
sI18102
F0.55
sI18104
F0.36450000000000005
sI18106
F0.5
sI18112
F1.0
sI18226
F0.5
sI18228
F0.4999999971803956
sI18229
F0.5
sI18234
F0.45
sI18235
F0.5
sI18237
F0.5
sI18239
F0.5
sI18241
F0.405
sI18247
F0.47842795
sI18252
F0.3641355
sI18253
F0.0
sI18255
F0.495
sI18257
F0.4982805
sI18261
F0.5
sI18263
F0.405
sI18266
F0.5
sI18267
F0.5
sI18268
F0.0
sI18273
F0.45
sI18274
F0.0
sI18283
F0.49999907709978264
sI18289
F0.5
sI18291
F0.5
sI18292
F0.0
sI18306
F0.294949755
sI18307
F0.495
sI18309
F0.5163136297667477
sI18311
F0.215233605
sI18313
F0.45
sI18315
F0.0
sI18320
F0.0
sI18322
F0.0
sI18325
F0.5
sI18327
F0.5317023418790077
sI18328
F0.9324574141163504
sI18333
F0.5
sI18335
F0.32569125489
sI18338
F0.464049
sI18339
F0.5
sI18340
F0.0
sI18344
F0.0
sI18348
F0.0
sI18351
F0.405
sI18352
F0.0
sI18354
F0.9249526823515004
sI18356
F0.29524500000000004
sI18361
F0.45
sI18363
F0.215233605
sI18364
F0.5
sI18370
F0.0
sI18372
F0.0
sI18382
F0.4995410519726552
sI18391
F0.405
sI18397
F0.405
sI18399
F0.4545
sI18400
F0.0
sI18417
F0.5
sI18418
F0.0
sI18423
F0.5
sI18424
F0.0
sI18426
F0.5
sI18428
F1.0
sI18468
F0.5
sI18469
F0.495
sI18471
F0.49999997180395633
sI18473
F0.5
sI18475
F0.5
sI18477
F0.5
sI18479
F0.5
sI18482
F0.5
sI18483
F0.45
sI18484
F0.5
sI18487
F0.45
sI18489
F0.5
sI18490
F0.5
sI18495
F0.5
sI18497
F0.5
sI18500
F0.5
sI18501
F0.5
sI18502
F0.0
sI18506
F0.5
sI18510
F0.5
sI18512
F0.5
sI18513
F0.5
sI18514
F0.0
sI18516
F0.5
sI18518
F0.5
sI18523
F0.5
sI18525
F0.4999997180395633
sI18526
F0.49999077099782624
sI18531
F0.45
sI18532
F0.5
sI18534
F0.5
sI18536
F0.5
sI18538
F0.45
sI18544
F0.49993308641756523
sI18549
F0.495
sI18551
F0.45
sI18554
F0.5
sI18555
F0.45
sI18556
F0.5
sI18560
F0.0
sI18564
F0.0
sI18567
F0.45
sI18568
F0.5
sI18570
F0.49999997363206683
sI18572
F0.23914845
sI18574
F0.5
sI18578
F0.0
sI18582
F0.0
sI18593
F0.0
sI18594
F0.0
sI18599
F0.0
sI18601
F0.0
sI18603
F0.45
sI18604
F0.49871205273771474
sI18606
F0.4998083537421917
sI18608
F0.2657205
sI18610
F0.2657205
sI18612
F0.0
sI18617
F0.0
sI18619
F0.0
sI18622
F0.49977569273479716
sI18624
F0.49999999999967015
sI18625
F0.4999999999999998
sI18631
F0.4488030472005
sI18633
F0.43751332034703927
sI18634
F0.3124130756833908
sI18639
F0.505
sI18640
F0.55
sI18642
F0.55
sI18644
F1.0
sI18646
F1.0
sI18652
F0.10294556604732451
sI18657
F0.45
sI18658
F0.0
sI18660
F0.5950000000000001
sI18662
F1.0
sI18666
F0.55
sI18668
F1.0
sI18672
F1.0
sI18678
F0.45
sI18679
F0.0
sI18688
F0.114383962274805
sI18694
F0.2657205
sI18696
F0.2657205
sI18697
F0.0
sI18715
F0.5
sI18721
F0.5
sI18723
F0.5
sI18724
F0.0
sI18741
F0.5
sI18742
F0.0
sI18747
F0.5
sI18748
F0.0
sI18750
F0.5
sI18752
F0.5
sI18793
F0.5
sI18795
F0.156905298045
sI18796
F0.5
sI18802
F0.0
sI18804
F0.0
sI18814
F1.0
sI18819
F0.5095000000000001
sI18820
F0.0
sI18822
F0.5950000000000001
sI18824
F0.29524500000000004
sI18828
F0.0
sI18833
F0.0
sI18835
F0.0
sI18840
F1.0
sI18850
F0.5
sI18859
F0.0
sI18912
F0.5
sI18913
F0.0
sI18985
F1.0
sI18991
F1.0
sI18993
F1.0
sI19039
F1.0
sI19045
F1.0
sI19047
F1.0
sI19063
F1.0
sI19065
F1.0
sI19071
F1.0
sI19076
F1.0
sI19078
F1.0
sI19084
F1.0
sI19201
F1.0
sI19207
F1.0
sI19209
F1.0
sI19225
F1.0
sI19227
F1.0
sI19233
F1.0
sI19238
F1.0
sI19240
F1.0
sI19246
F1.0
sI19279
F1.0
sI19281
F1.0
sI19287
F1.0
sI19292
F1.0
sI19294
F1.0
sI19300
F1.0
sI19336
F1.0
sI19342
F1.0
sI19344
F1.0
sI19390
F1.0
sI19396
F1.0
sI19398
F1.0
sI19552
F1.0
sI19558
F1.0
sI19560
F1.0
s.